TI ARM Assembler PC v18.1.4 Wed Dec 12 18:32:41 2018

Tools Copyright (c) 1996-2018 Texas Instruments Incorporated
C:\Users\DAMIAN\AppData\Local\Temp\{7491C7A3-CB92-4437-A790-AF4273D670A8} PAGE    1

       1                    ;******************************************************************************
       2                    ;* TI ARM C/C++ Codegen                                        PC v18.1.4.LTS *
       3                    ;* Date/Time created: Wed Dec 12 18:32:41 2018                                *
       4                    ;******************************************************************************
       5                            .compiler_opts --abi=eabi --arm_vmrs_si_workaround=off --code_state=16 --diag_wrap=off --embed
       6 00000000                   .thumb
       7                    
       8                    $C$DW$CU        .dwtag  DW_TAG_compile_unit
       9                            .dwattr $C$DW$CU, DW_AT_name("../Application/sensor.c")
      10                            .dwattr $C$DW$CU, DW_AT_producer("TI TI ARM C/C++ Codegen PC v18.1.4.LTS Copyright (c) 1996-20
      11                            .dwattr $C$DW$CU, DW_AT_TI_version(0x01)
      12                            .dwattr $C$DW$CU, DW_AT_comp_dir("C:\Users\DAMIAN\TIVA_CC1350\sensor_cc1350lp\sensor_cc1350lp"
      13                    
      14                    $C$DW$1 .dwtag  DW_TAG_subprogram
      15                            .dwattr $C$DW$1, DW_AT_name("initializeClocks")
      16                            .dwattr $C$DW$1, DW_AT_TI_symbol_name("initializeClocks")
      17                            .dwattr $C$DW$1, DW_AT_declaration
      18                            .dwattr $C$DW$1, DW_AT_external
      19                            .dwattr $C$DW$1, DW_AT_decl_file("../Application/sensor.c")
      20                            .dwattr $C$DW$1, DW_AT_decl_line(0x253)
      21                            .dwattr $C$DW$1, DW_AT_decl_column(0x0d)
      22                            .dwendtag $C$DW$1
      23                    
      24                    
      25                    $C$DW$2 .dwtag  DW_TAG_subprogram
      26                            .dwattr $C$DW$2, DW_AT_name("getMsduHandle")
      27                            .dwattr $C$DW$2, DW_AT_TI_symbol_name("getMsduHandle")
      28                            .dwattr $C$DW$2, DW_AT_type(*$C$DW$T$27)
      29                            .dwattr $C$DW$2, DW_AT_declaration
      30                            .dwattr $C$DW$2, DW_AT_external
      31                            .dwattr $C$DW$2, DW_AT_decl_file("../Application/sensor.c")
      32                            .dwattr $C$DW$2, DW_AT_decl_line(0x320)
      33                            .dwattr $C$DW$2, DW_AT_decl_column(0x10)
      34                    $C$DW$3 .dwtag  DW_TAG_formal_parameter
      35                            .dwattr $C$DW$3, DW_AT_type(*$C$DW$T$238)
      36                    
      37                            .dwendtag $C$DW$2
      38                    
      39                    
      40                    $C$DW$4 .dwtag  DW_TAG_subprogram
      41                            .dwattr $C$DW$4, DW_AT_name("sendSensorMessage")
      42                            .dwattr $C$DW$4, DW_AT_TI_symbol_name("sendSensorMessage")
      43                            .dwattr $C$DW$4, DW_AT_type(*$C$DW$T$31)
      44                            .dwattr $C$DW$4, DW_AT_declaration
      45                            .dwattr $C$DW$4, DW_AT_external
      46                            .dwattr $C$DW$4, DW_AT_decl_file("../Application/sensor.c")
      47                            .dwattr $C$DW$4, DW_AT_decl_line(0x3e1)
      48                            .dwattr $C$DW$4, DW_AT_decl_column(0x0d)
      49                    $C$DW$5 .dwtag  DW_TAG_formal_parameter
      50                            .dwattr $C$DW$5, DW_AT_type(*$C$DW$T$589)
      51                    
      52                    $C$DW$6 .dwtag  DW_TAG_formal_parameter
      53                            .dwattr $C$DW$6, DW_AT_type(*$C$DW$T$669)
      54                    
      55                            .dwendtag $C$DW$4
TI ARM Assembler PC v18.1.4 Wed Dec 12 18:32:41 2018

Tools Copyright (c) 1996-2018 Texas Instruments Incorporated
C:\Users\DAMIAN\AppData\Local\Temp\{7491C7A3-CB92-4437-A790-AF4273D670A8} PAGE    2

      56                    
      57                    
      58                    $C$DW$7 .dwtag  DW_TAG_subprogram
      59                            .dwattr $C$DW$7, DW_AT_name("processConfigRequest")
      60                            .dwattr $C$DW$7, DW_AT_TI_symbol_name("processConfigRequest")
      61                            .dwattr $C$DW$7, DW_AT_declaration
      62                            .dwattr $C$DW$7, DW_AT_external
      63                            .dwattr $C$DW$7, DW_AT_decl_file("../Application/sensor.c")
      64                            .dwattr $C$DW$7, DW_AT_decl_line(0x450)
      65                            .dwattr $C$DW$7, DW_AT_decl_column(0x0d)
      66                    $C$DW$8 .dwtag  DW_TAG_formal_parameter
      67                            .dwattr $C$DW$8, DW_AT_type(*$C$DW$T$331)
      68                    
      69                            .dwendtag $C$DW$7
      70                    
      71                    
      72                    $C$DW$9 .dwtag  DW_TAG_subprogram
      73                            .dwattr $C$DW$9, DW_AT_name("processBroadcastCtrlMsg")
      74                            .dwattr $C$DW$9, DW_AT_TI_symbol_name("processBroadcastCtrlMsg")
      75                            .dwattr $C$DW$9, DW_AT_declaration
      76                            .dwattr $C$DW$9, DW_AT_external
      77                            .dwattr $C$DW$9, DW_AT_decl_file("../Application/sensor.c")
      78                            .dwattr $C$DW$9, DW_AT_decl_line(0x4ad)
      79                            .dwattr $C$DW$9, DW_AT_decl_column(0x0d)
      80                    $C$DW$10        .dwtag  DW_TAG_formal_parameter
      81                            .dwattr $C$DW$10, DW_AT_type(*$C$DW$T$331)
      82                    
      83                            .dwendtag $C$DW$9
      84                    
      85                    
      86                    $C$DW$11        .dwtag  DW_TAG_subprogram
      87                            .dwattr $C$DW$11, DW_AT_name("sendConfigRsp")
      88                            .dwattr $C$DW$11, DW_AT_TI_symbol_name("sendConfigRsp")
      89                            .dwattr $C$DW$11, DW_AT_type(*$C$DW$T$31)
      90                            .dwattr $C$DW$11, DW_AT_declaration
      91                            .dwattr $C$DW$11, DW_AT_external
      92                            .dwattr $C$DW$11, DW_AT_decl_file("../Application/sensor.c")
      93                            .dwattr $C$DW$11, DW_AT_decl_line(0x4e2)
      94                            .dwattr $C$DW$11, DW_AT_decl_column(0x0d)
      95                    $C$DW$12        .dwtag  DW_TAG_formal_parameter
      96                            .dwattr $C$DW$12, DW_AT_type(*$C$DW$T$589)
      97                    
      98                    $C$DW$13        .dwtag  DW_TAG_formal_parameter
      99                            .dwattr $C$DW$13, DW_AT_type(*$C$DW$T$661)
     100                    
     101                            .dwendtag $C$DW$11
     102                    
     103                    
     104                    $C$DW$14        .dwtag  DW_TAG_subprogram
     105                            .dwattr $C$DW$14, DW_AT_name("validateFrameControl")
     106                            .dwattr $C$DW$14, DW_AT_TI_symbol_name("validateFrameControl")
     107                            .dwattr $C$DW$14, DW_AT_type(*$C$DW$T$34)
     108                            .dwattr $C$DW$14, DW_AT_declaration
     109                            .dwattr $C$DW$14, DW_AT_external
     110                            .dwattr $C$DW$14, DW_AT_decl_file("../Application/sensor.c")
TI ARM Assembler PC v18.1.4 Wed Dec 12 18:32:41 2018

Tools Copyright (c) 1996-2018 Texas Instruments Incorporated
C:\Users\DAMIAN\AppData\Local\Temp\{7491C7A3-CB92-4437-A790-AF4273D670A8} PAGE    3

     111                            .dwattr $C$DW$14, DW_AT_decl_line(0x4f8)
     112                            .dwattr $C$DW$14, DW_AT_decl_column(0x11)
     113                    $C$DW$15        .dwtag  DW_TAG_formal_parameter
     114                            .dwattr $C$DW$15, DW_AT_type(*$C$DW$T$34)
     115                    
     116                            .dwendtag $C$DW$14
     117                    
     118                    
     119                    $C$DW$16        .dwtag  DW_TAG_subprogram
     120                            .dwattr $C$DW$16, DW_AT_name("readSensors")
     121                            .dwattr $C$DW$16, DW_AT_TI_symbol_name("readSensors")
     122                            .dwattr $C$DW$16, DW_AT_declaration
     123                            .dwattr $C$DW$16, DW_AT_external
     124                            .dwattr $C$DW$16, DW_AT_decl_file("../Application/sensor.c")
     125                            .dwattr $C$DW$16, DW_AT_decl_line(0x5be)
     126                            .dwattr $C$DW$16, DW_AT_decl_column(0x0d)
     127                            .dwendtag $C$DW$16
     128                    
     129                    $C$DW$17        .dwtag  DW_TAG_variable
     130                            .dwattr $C$DW$17, DW_AT_name("Ssf_resetReseason")
     131                            .dwattr $C$DW$17, DW_AT_TI_symbol_name("Ssf_resetReseason")
     132                            .dwattr $C$DW$17, DW_AT_type(*$C$DW$T$27)
     133                            .dwattr $C$DW$17, DW_AT_declaration
     134                            .dwattr $C$DW$17, DW_AT_external
     135                            .dwattr $C$DW$17, DW_AT_decl_file("..\Application\ssf.h")
     136                            .dwattr $C$DW$17, DW_AT_decl_line(0x54)
     137                            .dwattr $C$DW$17, DW_AT_decl_column(0x10)
     138                    
     139                    $C$DW$18        .dwtag  DW_TAG_variable
     140                            .dwattr $C$DW$18, DW_AT_name("Ssf_resetCount")
     141                            .dwattr $C$DW$18, DW_AT_TI_symbol_name("Ssf_resetCount")
     142                            .dwattr $C$DW$18, DW_AT_type(*$C$DW$T$34)
     143                            .dwattr $C$DW$18, DW_AT_declaration
     144                            .dwattr $C$DW$18, DW_AT_external
     145                            .dwattr $C$DW$18, DW_AT_decl_file("..\Application\ssf.h")
     146                            .dwattr $C$DW$18, DW_AT_decl_line(0x57)
     147                            .dwattr $C$DW$18, DW_AT_decl_column(0x11)
     148                    
     149                    $C$DW$19        .dwtag  DW_TAG_variable
     150                            .dwattr $C$DW$19, DW_AT_name("ICall_dispatcher")
     151                            .dwattr $C$DW$19, DW_AT_TI_symbol_name("ICall_dispatcher")
     152                            .dwattr $C$DW$19, DW_AT_type(*$C$DW$T$489)
     153                            .dwattr $C$DW$19, DW_AT_declaration
     154                            .dwattr $C$DW$19, DW_AT_external
     155                            .dwattr $C$DW$19, DW_AT_decl_file("C:/ti/simplelink_cc13x0_sdk_2_30_00_20/source/ti/ti154stack
     156                            .dwattr $C$DW$19, DW_AT_decl_line(0x381)
     157                            .dwattr $C$DW$19, DW_AT_decl_column(0x19)
     158                    
     159                    $C$DW$20        .dwtag  DW_TAG_variable
     160                            .dwattr $C$DW$20, DW_AT_name("initBroadcastMsg")
     161                            .dwattr $C$DW$20, DW_AT_TI_symbol_name("initBroadcastMsg")
     162                            .dwattr $C$DW$20, DW_AT_type(*$C$DW$T$31)
     163                            .dwattr $C$DW$20, DW_AT_declaration
     164                            .dwattr $C$DW$20, DW_AT_external
     165                            .dwattr $C$DW$20, DW_AT_decl_file("../Application/sensor.c")
TI ARM Assembler PC v18.1.4 Wed Dec 12 18:32:41 2018

Tools Copyright (c) 1996-2018 Texas Instruments Incorporated
C:\Users\DAMIAN\AppData\Local\Temp\{7491C7A3-CB92-4437-A790-AF4273D670A8} PAGE    4

     166                            .dwattr $C$DW$20, DW_AT_decl_line(0x8d)
     167                            .dwattr $C$DW$20, DW_AT_decl_column(0x0d)
     168                    
     169                    $C$DW$21        .dwtag  DW_TAG_variable
     170                            .dwattr $C$DW$21, DW_AT_name("parentFound")
     171                            .dwattr $C$DW$21, DW_AT_TI_symbol_name("parentFound")
     172                            .dwattr $C$DW$21, DW_AT_type(*$C$DW$T$31)
     173                            .dwattr $C$DW$21, DW_AT_declaration
     174                            .dwattr $C$DW$21, DW_AT_external
     175                            .dwattr $C$DW$21, DW_AT_decl_file("../Application/sensor.c")
     176                            .dwattr $C$DW$21, DW_AT_decl_line(0x8e)
     177                            .dwattr $C$DW$21, DW_AT_decl_column(0x0d)
     178                    
     179                    
     180                    $C$DW$22        .dwtag  DW_TAG_subprogram
     181                            .dwattr $C$DW$22, DW_AT_name("memset")
     182                            .dwattr $C$DW$22, DW_AT_TI_symbol_name("memset")
     183                            .dwattr $C$DW$22, DW_AT_type(*$C$DW$T$3)
     184                            .dwattr $C$DW$22, DW_AT_declaration
     185                            .dwattr $C$DW$22, DW_AT_external
     186                            .dwattr $C$DW$22, DW_AT_decl_file("C:/ti/ccsv8/tools/compiler/ti-cgt-arm_18.1.4.LTS/include/st
     187                            .dwattr $C$DW$22, DW_AT_decl_line(0x7a)
     188                            .dwattr $C$DW$22, DW_AT_decl_column(0x16)
     189                    $C$DW$23        .dwtag  DW_TAG_formal_parameter
     190                            .dwattr $C$DW$23, DW_AT_type(*$C$DW$T$3)
     191                    
     192                    $C$DW$24        .dwtag  DW_TAG_formal_parameter
     193                            .dwattr $C$DW$24, DW_AT_type(*$C$DW$T$10)
     194                    
     195                    $C$DW$25        .dwtag  DW_TAG_formal_parameter
     196                            .dwattr $C$DW$25, DW_AT_type(*$C$DW$T$185)
     197                    
     198                            .dwendtag $C$DW$22
     199                    
     200                    
     201                    $C$DW$26        .dwtag  DW_TAG_subprogram
     202                            .dwattr $C$DW$26, DW_AT_name("ApiMac_init")
     203                            .dwattr $C$DW$26, DW_AT_TI_symbol_name("ApiMac_init")
     204                            .dwattr $C$DW$26, DW_AT_type(*$C$DW$T$3)
     205                            .dwattr $C$DW$26, DW_AT_declaration
     206                            .dwattr $C$DW$26, DW_AT_external
     207                            .dwattr $C$DW$26, DW_AT_decl_file("..\Application\api_mac.h")
     208                            .dwattr $C$DW$26, DW_AT_decl_line(0x9b1)
     209                            .dwattr $C$DW$26, DW_AT_decl_column(0x0e)
     210                    $C$DW$27        .dwtag  DW_TAG_formal_parameter
     211                            .dwattr $C$DW$27, DW_AT_type(*$C$DW$T$31)
     212                    
     213                            .dwendtag $C$DW$26
     214                    
     215                    
     216                    $C$DW$28        .dwtag  DW_TAG_subprogram
     217                            .dwattr $C$DW$28, DW_AT_name("Jdllc_init")
     218                            .dwattr $C$DW$28, DW_AT_TI_symbol_name("Jdllc_init")
     219                            .dwattr $C$DW$28, DW_AT_declaration
     220                            .dwattr $C$DW$28, DW_AT_external
TI ARM Assembler PC v18.1.4 Wed Dec 12 18:32:41 2018

Tools Copyright (c) 1996-2018 Texas Instruments Incorporated
C:\Users\DAMIAN\AppData\Local\Temp\{7491C7A3-CB92-4437-A790-AF4273D670A8} PAGE    5

     221                            .dwattr $C$DW$28, DW_AT_decl_file("..\Application\jdllc.h")
     222                            .dwattr $C$DW$28, DW_AT_decl_line(0xd2)
     223                            .dwattr $C$DW$28, DW_AT_decl_column(0x0d)
     224                    $C$DW$29        .dwtag  DW_TAG_formal_parameter
     225                            .dwattr $C$DW$29, DW_AT_type(*$C$DW$T$690)
     226                    
     227                    $C$DW$30        .dwtag  DW_TAG_formal_parameter
     228                            .dwattr $C$DW$30, DW_AT_type(*$C$DW$T$655)
     229                    
     230                            .dwendtag $C$DW$28
     231                    
     232                    
     233                    $C$DW$31        .dwtag  DW_TAG_subprogram
     234                            .dwattr $C$DW$31, DW_AT_name("ApiMac_registerCallbacks")
     235                            .dwattr $C$DW$31, DW_AT_TI_symbol_name("ApiMac_registerCallbacks")
     236                            .dwattr $C$DW$31, DW_AT_declaration
     237                            .dwattr $C$DW$31, DW_AT_external
     238                            .dwattr $C$DW$31, DW_AT_decl_file("..\Application\api_mac.h")
     239                            .dwattr $C$DW$31, DW_AT_decl_line(0x9b8)
     240                            .dwattr $C$DW$31, DW_AT_decl_column(0x0d)
     241                    $C$DW$32        .dwtag  DW_TAG_formal_parameter
     242                            .dwattr $C$DW$32, DW_AT_type(*$C$DW$T$690)
     243                    
     244                            .dwendtag $C$DW$31
     245                    
     246                    
     247                    $C$DW$33        .dwtag  DW_TAG_subprogram
     248                            .dwattr $C$DW$33, DW_AT_name("Ssf_init")
     249                            .dwattr $C$DW$33, DW_AT_TI_symbol_name("Ssf_init")
     250                            .dwattr $C$DW$33, DW_AT_declaration
     251                            .dwattr $C$DW$33, DW_AT_external
     252                            .dwattr $C$DW$33, DW_AT_decl_file("..\Application\ssf.h")
     253                            .dwattr $C$DW$33, DW_AT_decl_line(0x62)
     254                            .dwattr $C$DW$33, DW_AT_decl_column(0x0d)
     255                    $C$DW$34        .dwtag  DW_TAG_formal_parameter
     256                            .dwattr $C$DW$34, DW_AT_type(*$C$DW$T$3)
     257                    
     258                            .dwendtag $C$DW$33
     259                    
     260                    
     261                    $C$DW$35        .dwtag  DW_TAG_subprogram
     262                            .dwattr $C$DW$35, DW_AT_name("ApiMac_mlmeSetReqUint8")
     263                            .dwattr $C$DW$35, DW_AT_TI_symbol_name("ApiMac_mlmeSetReqUint8")
     264                            .dwattr $C$DW$35, DW_AT_type(*$C$DW$T$227)
     265                            .dwattr $C$DW$35, DW_AT_declaration
     266                            .dwattr $C$DW$35, DW_AT_external
     267                            .dwattr $C$DW$35, DW_AT_decl_file("..\Application\api_mac.h")
     268                            .dwattr $C$DW$35, DW_AT_decl_line(0xb6d)
     269                            .dwattr $C$DW$35, DW_AT_decl_column(0x18)
     270                    $C$DW$36        .dwtag  DW_TAG_formal_parameter
     271                            .dwattr $C$DW$36, DW_AT_type(*$C$DW$T$530)
     272                    
     273                    $C$DW$37        .dwtag  DW_TAG_formal_parameter
     274                            .dwattr $C$DW$37, DW_AT_type(*$C$DW$T$27)
     275                    
TI ARM Assembler PC v18.1.4 Wed Dec 12 18:32:41 2018

Tools Copyright (c) 1996-2018 Texas Instruments Incorporated
C:\Users\DAMIAN\AppData\Local\Temp\{7491C7A3-CB92-4437-A790-AF4273D670A8} PAGE    6

     276                            .dwendtag $C$DW$35
     277                    
     278                    
     279                    $C$DW$38        .dwtag  DW_TAG_subprogram
     280                            .dwattr $C$DW$38, DW_AT_name("Ssf_getFrameCounter")
     281                            .dwattr $C$DW$38, DW_AT_TI_symbol_name("Ssf_getFrameCounter")
     282                            .dwattr $C$DW$38, DW_AT_type(*$C$DW$T$31)
     283                            .dwattr $C$DW$38, DW_AT_declaration
     284                            .dwattr $C$DW$38, DW_AT_external
     285                            .dwattr $C$DW$38, DW_AT_decl_file("..\Application\ssf.h")
     286                            .dwattr $C$DW$38, DW_AT_decl_line(0x163)
     287                            .dwattr $C$DW$38, DW_AT_decl_column(0x0d)
     288                    $C$DW$39        .dwtag  DW_TAG_formal_parameter
     289                            .dwattr $C$DW$39, DW_AT_type(*$C$DW$T$589)
     290                    
     291                    $C$DW$40        .dwtag  DW_TAG_formal_parameter
     292                            .dwattr $C$DW$40, DW_AT_type(*$C$DW$T$74)
     293                    
     294                            .dwendtag $C$DW$38
     295                    
     296                    
     297                    $C$DW$41        .dwtag  DW_TAG_subprogram
     298                            .dwattr $C$DW$41, DW_AT_name("Jdllc_securityInit")
     299                            .dwattr $C$DW$41, DW_AT_TI_symbol_name("Jdllc_securityInit")
     300                            .dwattr $C$DW$41, DW_AT_declaration
     301                            .dwattr $C$DW$41, DW_AT_external
     302                            .dwattr $C$DW$41, DW_AT_decl_file("..\Application\jdllc.h")
     303                            .dwattr $C$DW$41, DW_AT_decl_line(0x109)
     304                            .dwattr $C$DW$41, DW_AT_decl_column(0x0d)
     305                    $C$DW$42        .dwtag  DW_TAG_formal_parameter
     306                            .dwattr $C$DW$42, DW_AT_type(*$C$DW$T$36)
     307                    
     308                            .dwendtag $C$DW$41
     309                    
     310                    
     311                    $C$DW$43        .dwtag  DW_TAG_subprogram
     312                            .dwattr $C$DW$43, DW_AT_name("Util_setEvent")
     313                            .dwattr $C$DW$43, DW_AT_TI_symbol_name("Util_setEvent")
     314                            .dwattr $C$DW$43, DW_AT_declaration
     315                            .dwattr $C$DW$43, DW_AT_external
     316                            .dwattr $C$DW$43, DW_AT_decl_file("..\Application\util.h")
     317                            .dwattr $C$DW$43, DW_AT_decl_line(0x101)
     318                            .dwattr $C$DW$43, DW_AT_decl_column(0x0d)
     319                    $C$DW$44        .dwtag  DW_TAG_formal_parameter
     320                            .dwattr $C$DW$44, DW_AT_type(*$C$DW$T$70)
     321                    
     322                    $C$DW$45        .dwtag  DW_TAG_formal_parameter
     323                            .dwattr $C$DW$45, DW_AT_type(*$C$DW$T$34)
     324                    
     325                            .dwendtag $C$DW$43
     326                    
     327                    
     328                    $C$DW$46        .dwtag  DW_TAG_subprogram
     329                            .dwattr $C$DW$46, DW_AT_name("Ssf_getNetworkInfo")
     330                            .dwattr $C$DW$46, DW_AT_TI_symbol_name("Ssf_getNetworkInfo")
TI ARM Assembler PC v18.1.4 Wed Dec 12 18:32:41 2018

Tools Copyright (c) 1996-2018 Texas Instruments Incorporated
C:\Users\DAMIAN\AppData\Local\Temp\{7491C7A3-CB92-4437-A790-AF4273D670A8} PAGE    7

     331                            .dwattr $C$DW$46, DW_AT_type(*$C$DW$T$31)
     332                            .dwattr $C$DW$46, DW_AT_declaration
     333                            .dwattr $C$DW$46, DW_AT_external
     334                            .dwattr $C$DW$46, DW_AT_decl_file("..\Application\ssf.h")
     335                            .dwattr $C$DW$46, DW_AT_decl_line(0x83)
     336                            .dwattr $C$DW$46, DW_AT_decl_column(0x0d)
     337                    $C$DW$47        .dwtag  DW_TAG_formal_parameter
     338                            .dwattr $C$DW$47, DW_AT_type(*$C$DW$T$214)
     339                    
     340                    $C$DW$48        .dwtag  DW_TAG_formal_parameter
     341                            .dwattr $C$DW$48, DW_AT_type(*$C$DW$T$216)
     342                    
     343                            .dwendtag $C$DW$46
     344                    
     345                    
     346                    $C$DW$49        .dwtag  DW_TAG_subprogram
     347                            .dwattr $C$DW$49, DW_AT_name("Ssf_getConfigInfo")
     348                            .dwattr $C$DW$49, DW_AT_TI_symbol_name("Ssf_getConfigInfo")
     349                            .dwattr $C$DW$49, DW_AT_type(*$C$DW$T$31)
     350                            .dwattr $C$DW$49, DW_AT_declaration
     351                            .dwattr $C$DW$49, DW_AT_external
     352                            .dwattr $C$DW$49, DW_AT_decl_file("..\Application\ssf.h")
     353                            .dwattr $C$DW$49, DW_AT_decl_line(0xd4)
     354                            .dwattr $C$DW$49, DW_AT_decl_column(0x0d)
     355                    $C$DW$50        .dwtag  DW_TAG_formal_parameter
     356                            .dwattr $C$DW$50, DW_AT_type(*$C$DW$T$597)
     357                    
     358                            .dwendtag $C$DW$49
     359                    
     360                    
     361                    $C$DW$51        .dwtag  DW_TAG_subprogram
     362                            .dwattr $C$DW$51, DW_AT_name("Jdllc_setPollRate")
     363                            .dwattr $C$DW$51, DW_AT_TI_symbol_name("Jdllc_setPollRate")
     364                            .dwattr $C$DW$51, DW_AT_declaration
     365                            .dwattr $C$DW$51, DW_AT_external
     366                            .dwattr $C$DW$51, DW_AT_decl_file("..\Application\jdllc.h")
     367                            .dwattr $C$DW$51, DW_AT_decl_line(0xfd)
     368                            .dwattr $C$DW$51, DW_AT_decl_column(0x0d)
     369                    $C$DW$52        .dwtag  DW_TAG_formal_parameter
     370                            .dwattr $C$DW$52, DW_AT_type(*$C$DW$T$36)
     371                    
     372                            .dwendtag $C$DW$51
     373                    
     374                    
     375                    $C$DW$53        .dwtag  DW_TAG_subprogram
     376                            .dwattr $C$DW$53, DW_AT_name("Jdllc_addSecDevice")
     377                            .dwattr $C$DW$53, DW_AT_TI_symbol_name("Jdllc_addSecDevice")
     378                            .dwattr $C$DW$53, DW_AT_type(*$C$DW$T$227)
     379                            .dwattr $C$DW$53, DW_AT_declaration
     380                            .dwattr $C$DW$53, DW_AT_external
     381                            .dwattr $C$DW$53, DW_AT_decl_file("..\Application\jdllc.h")
     382                            .dwattr $C$DW$53, DW_AT_decl_line(0x125)
     383                            .dwattr $C$DW$53, DW_AT_decl_column(0x18)
     384                    $C$DW$54        .dwtag  DW_TAG_formal_parameter
     385                            .dwattr $C$DW$54, DW_AT_type(*$C$DW$T$34)
TI ARM Assembler PC v18.1.4 Wed Dec 12 18:32:41 2018

Tools Copyright (c) 1996-2018 Texas Instruments Incorporated
C:\Users\DAMIAN\AppData\Local\Temp\{7491C7A3-CB92-4437-A790-AF4273D670A8} PAGE    8

     386                    
     387                    $C$DW$55        .dwtag  DW_TAG_formal_parameter
     388                            .dwattr $C$DW$55, DW_AT_type(*$C$DW$T$34)
     389                    
     390                    $C$DW$56        .dwtag  DW_TAG_formal_parameter
     391                            .dwattr $C$DW$56, DW_AT_type(*$C$DW$T$220)
     392                    
     393                    $C$DW$57        .dwtag  DW_TAG_formal_parameter
     394                            .dwattr $C$DW$57, DW_AT_type(*$C$DW$T$36)
     395                    
     396                            .dwendtag $C$DW$53
     397                    
     398                    
     399                    $C$DW$58        .dwtag  DW_TAG_subprogram
     400                            .dwattr $C$DW$58, DW_AT_name("Ssf_displayError")
     401                            .dwattr $C$DW$58, DW_AT_TI_symbol_name("Ssf_displayError")
     402                            .dwattr $C$DW$58, DW_AT_declaration
     403                            .dwattr $C$DW$58, DW_AT_external
     404                            .dwattr $C$DW$58, DW_AT_decl_file("..\Application\ssf.h")
     405                            .dwattr $C$DW$58, DW_AT_decl_line(0x16d)
     406                            .dwattr $C$DW$58, DW_AT_decl_column(0x0d)
     407                    $C$DW$59        .dwtag  DW_TAG_formal_parameter
     408                            .dwattr $C$DW$59, DW_AT_type(*$C$DW$T$54)
     409                    
     410                    $C$DW$60        .dwtag  DW_TAG_formal_parameter
     411                            .dwattr $C$DW$60, DW_AT_type(*$C$DW$T$27)
     412                    
     413                            .dwendtag $C$DW$58
     414                    
     415                    
     416                    $C$DW$61        .dwtag  DW_TAG_subprogram
     417                            .dwattr $C$DW$61, DW_AT_name("Jdllc_rejoin")
     418                            .dwattr $C$DW$61, DW_AT_TI_symbol_name("Jdllc_rejoin")
     419                            .dwattr $C$DW$61, DW_AT_declaration
     420                            .dwattr $C$DW$61, DW_AT_external
     421                            .dwattr $C$DW$61, DW_AT_decl_file("..\Application\jdllc.h")
     422                            .dwattr $C$DW$61, DW_AT_decl_line(0xf3)
     423                            .dwattr $C$DW$61, DW_AT_decl_column(0x0d)
     424                    $C$DW$62        .dwtag  DW_TAG_formal_parameter
     425                            .dwattr $C$DW$62, DW_AT_type(*$C$DW$T$214)
     426                    
     427                    $C$DW$63        .dwtag  DW_TAG_formal_parameter
     428                            .dwattr $C$DW$63, DW_AT_type(*$C$DW$T$216)
     429                    
     430                            .dwendtag $C$DW$61
     431                    
     432                    
     433                    $C$DW$64        .dwtag  DW_TAG_subprogram
     434                            .dwattr $C$DW$64, DW_AT_name("Jdllc_join")
     435                            .dwattr $C$DW$64, DW_AT_TI_symbol_name("Jdllc_join")
     436                            .dwattr $C$DW$64, DW_AT_declaration
     437                            .dwattr $C$DW$64, DW_AT_external
     438                            .dwattr $C$DW$64, DW_AT_decl_file("..\Application\jdllc.h")
     439                            .dwattr $C$DW$64, DW_AT_decl_line(0xe3)
     440                            .dwattr $C$DW$64, DW_AT_decl_column(0x0d)
TI ARM Assembler PC v18.1.4 Wed Dec 12 18:32:41 2018

Tools Copyright (c) 1996-2018 Texas Instruments Incorporated
C:\Users\DAMIAN\AppData\Local\Temp\{7491C7A3-CB92-4437-A790-AF4273D670A8} PAGE    9

     441                            .dwendtag $C$DW$64
     442                    
     443                    
     444                    $C$DW$65        .dwtag  DW_TAG_subprogram
     445                            .dwattr $C$DW$65, DW_AT_name("Util_clearEvent")
     446                            .dwattr $C$DW$65, DW_AT_TI_symbol_name("Util_clearEvent")
     447                            .dwattr $C$DW$65, DW_AT_declaration
     448                            .dwattr $C$DW$65, DW_AT_external
     449                            .dwattr $C$DW$65, DW_AT_decl_file("..\Application\util.h")
     450                            .dwattr $C$DW$65, DW_AT_decl_line(0xf9)
     451                            .dwattr $C$DW$65, DW_AT_decl_column(0x0d)
     452                    $C$DW$66        .dwtag  DW_TAG_formal_parameter
     453                            .dwattr $C$DW$66, DW_AT_type(*$C$DW$T$70)
     454                    
     455                    $C$DW$67        .dwtag  DW_TAG_formal_parameter
     456                            .dwattr $C$DW$67, DW_AT_type(*$C$DW$T$34)
     457                    
     458                            .dwendtag $C$DW$65
     459                    
     460                    
     461                    $C$DW$68        .dwtag  DW_TAG_subprogram
     462                            .dwattr $C$DW$68, DW_AT_name("Ssf_setReadingClock")
     463                            .dwattr $C$DW$68, DW_AT_TI_symbol_name("Ssf_setReadingClock")
     464                            .dwattr $C$DW$68, DW_AT_declaration
     465                            .dwattr $C$DW$68, DW_AT_external
     466                            .dwattr $C$DW$68, DW_AT_decl_file("..\Application\ssf.h")
     467                            .dwattr $C$DW$68, DW_AT_decl_line(0xb8)
     468                            .dwattr $C$DW$68, DW_AT_decl_column(0x0d)
     469                    $C$DW$69        .dwtag  DW_TAG_formal_parameter
     470                            .dwattr $C$DW$69, DW_AT_type(*$C$DW$T$36)
     471                    
     472                            .dwendtag $C$DW$68
     473                    
     474                    
     475                    $C$DW$70        .dwtag  DW_TAG_subprogram
     476                            .dwattr $C$DW$70, DW_AT_name("Jdllc_process")
     477                            .dwattr $C$DW$70, DW_AT_TI_symbol_name("Jdllc_process")
     478                            .dwattr $C$DW$70, DW_AT_declaration
     479                            .dwattr $C$DW$70, DW_AT_external
     480                            .dwattr $C$DW$70, DW_AT_decl_file("..\Application\jdllc.h")
     481                            .dwattr $C$DW$70, DW_AT_decl_line(0xd8)
     482                            .dwattr $C$DW$70, DW_AT_decl_column(0x0d)
     483                            .dwendtag $C$DW$70
     484                    
     485                    
     486                    $C$DW$71        .dwtag  DW_TAG_subprogram
     487                            .dwattr $C$DW$71, DW_AT_name("Ssf_processEvents")
     488                            .dwattr $C$DW$71, DW_AT_TI_symbol_name("Ssf_processEvents")
     489                            .dwattr $C$DW$71, DW_AT_declaration
     490                            .dwattr $C$DW$71, DW_AT_external
     491                            .dwattr $C$DW$71, DW_AT_decl_file("..\Application\ssf.h")
     492                            .dwattr $C$DW$71, DW_AT_decl_line(0x68)
     493                            .dwattr $C$DW$71, DW_AT_decl_column(0x0d)
     494                            .dwendtag $C$DW$71
     495                    
TI ARM Assembler PC v18.1.4 Wed Dec 12 18:32:41 2018

Tools Copyright (c) 1996-2018 Texas Instruments Incorporated
C:\Users\DAMIAN\AppData\Local\Temp\{7491C7A3-CB92-4437-A790-AF4273D670A8} PAGE   10

     496                    
     497                    $C$DW$72        .dwtag  DW_TAG_subprogram
     498                            .dwattr $C$DW$72, DW_AT_name("ApiMac_processIncoming")
     499                            .dwattr $C$DW$72, DW_AT_TI_symbol_name("ApiMac_processIncoming")
     500                            .dwattr $C$DW$72, DW_AT_declaration
     501                            .dwattr $C$DW$72, DW_AT_external
     502                            .dwattr $C$DW$72, DW_AT_decl_file("..\Application\api_mac.h")
     503                            .dwattr $C$DW$72, DW_AT_decl_line(0x9bd)
     504                            .dwattr $C$DW$72, DW_AT_decl_column(0x0d)
     505                            .dwendtag $C$DW$72
     506                    
     507                    
     508                    $C$DW$73        .dwtag  DW_TAG_subprogram
     509                            .dwattr $C$DW$73, DW_AT_name("ApiMac_mlmeGetReqUint16")
     510                            .dwattr $C$DW$73, DW_AT_TI_symbol_name("ApiMac_mlmeGetReqUint16")
     511                            .dwattr $C$DW$73, DW_AT_type(*$C$DW$T$227)
     512                            .dwattr $C$DW$73, DW_AT_declaration
     513                            .dwattr $C$DW$73, DW_AT_external
     514                            .dwattr $C$DW$73, DW_AT_decl_file("..\Application\api_mac.h")
     515                            .dwattr $C$DW$73, DW_AT_decl_line(0xa4b)
     516                            .dwattr $C$DW$73, DW_AT_decl_column(0x18)
     517                    $C$DW$74        .dwtag  DW_TAG_formal_parameter
     518                            .dwattr $C$DW$74, DW_AT_type(*$C$DW$T$521)
     519                    
     520                    $C$DW$75        .dwtag  DW_TAG_formal_parameter
     521                            .dwattr $C$DW$75, DW_AT_type(*$C$DW$T$70)
     522                    
     523                            .dwendtag $C$DW$73
     524                    
     525                    
     526                    $C$DW$76        .dwtag  DW_TAG_subprogram
     527                            .dwattr $C$DW$76, DW_AT_name("Jdllc_securityFill")
     528                            .dwattr $C$DW$76, DW_AT_TI_symbol_name("Jdllc_securityFill")
     529                            .dwattr $C$DW$76, DW_AT_declaration
     530                            .dwattr $C$DW$76, DW_AT_external
     531                            .dwattr $C$DW$76, DW_AT_decl_file("..\Application\jdllc.h")
     532                            .dwattr $C$DW$76, DW_AT_decl_line(0x110)
     533                            .dwattr $C$DW$76, DW_AT_decl_column(0x0d)
     534                    $C$DW$77        .dwtag  DW_TAG_formal_parameter
     535                            .dwattr $C$DW$77, DW_AT_type(*$C$DW$T$695)
     536                    
     537                            .dwendtag $C$DW$76
     538                    
     539                    
     540                    $C$DW$78        .dwtag  DW_TAG_subprogram
     541                            .dwattr $C$DW$78, DW_AT_name("ApiMac_mcpsDataReq")
     542                            .dwattr $C$DW$78, DW_AT_TI_symbol_name("ApiMac_mcpsDataReq")
     543                            .dwattr $C$DW$78, DW_AT_type(*$C$DW$T$227)
     544                            .dwattr $C$DW$78, DW_AT_declaration
     545                            .dwattr $C$DW$78, DW_AT_external
     546                            .dwattr $C$DW$78, DW_AT_decl_file("..\Application\api_mac.h")
     547                            .dwattr $C$DW$78, DW_AT_decl_line(0x9d8)
     548                            .dwattr $C$DW$78, DW_AT_decl_column(0x18)
     549                    $C$DW$79        .dwtag  DW_TAG_formal_parameter
     550                            .dwattr $C$DW$79, DW_AT_type(*$C$DW$T$518)
TI ARM Assembler PC v18.1.4 Wed Dec 12 18:32:41 2018

Tools Copyright (c) 1996-2018 Texas Instruments Incorporated
C:\Users\DAMIAN\AppData\Local\Temp\{7491C7A3-CB92-4437-A790-AF4273D670A8} PAGE   11

     551                    
     552                            .dwendtag $C$DW$78
     553                    
     554                    
     555                    $C$DW$80        .dwtag  DW_TAG_subprogram
     556                            .dwattr $C$DW$80, DW_AT_name("Ssf_initializeReadingClock")
     557                            .dwattr $C$DW$80, DW_AT_TI_symbol_name("Ssf_initializeReadingClock")
     558                            .dwattr $C$DW$80, DW_AT_declaration
     559                            .dwattr $C$DW$80, DW_AT_external
     560                            .dwattr $C$DW$80, DW_AT_decl_file("..\Application\ssf.h")
     561                            .dwattr $C$DW$80, DW_AT_decl_line(0xb1)
     562                            .dwattr $C$DW$80, DW_AT_decl_column(0x0d)
     563                            .dwendtag $C$DW$80
     564                    
     565                    
     566                    $C$DW$81        .dwtag  DW_TAG_subprogram
     567                            .dwattr $C$DW$81, DW_AT_name("Ssf_updateFrameCounter")
     568                            .dwattr $C$DW$81, DW_AT_TI_symbol_name("Ssf_updateFrameCounter")
     569                            .dwattr $C$DW$81, DW_AT_declaration
     570                            .dwattr $C$DW$81, DW_AT_external
     571                            .dwattr $C$DW$81, DW_AT_decl_file("..\Application\ssf.h")
     572                            .dwattr $C$DW$81, DW_AT_decl_line(0x156)
     573                            .dwattr $C$DW$81, DW_AT_decl_column(0x0d)
     574                    $C$DW$82        .dwtag  DW_TAG_formal_parameter
     575                            .dwattr $C$DW$82, DW_AT_type(*$C$DW$T$589)
     576                    
     577                    $C$DW$83        .dwtag  DW_TAG_formal_parameter
     578                            .dwattr $C$DW$83, DW_AT_type(*$C$DW$T$36)
     579                    
     580                            .dwendtag $C$DW$81
     581                    
     582                    
     583                    $C$DW$84        .dwtag  DW_TAG_subprogram
     584                            .dwattr $C$DW$84, DW_AT_name("Jdllc_securityCheck")
     585                            .dwattr $C$DW$84, DW_AT_TI_symbol_name("Jdllc_securityCheck")
     586                            .dwattr $C$DW$84, DW_AT_type(*$C$DW$T$31)
     587                            .dwattr $C$DW$84, DW_AT_declaration
     588                            .dwattr $C$DW$84, DW_AT_external
     589                            .dwattr $C$DW$84, DW_AT_decl_file("..\Application\jdllc.h")
     590                            .dwattr $C$DW$84, DW_AT_decl_line(0x119)
     591                            .dwattr $C$DW$84, DW_AT_decl_column(0x0d)
     592                    $C$DW$85        .dwtag  DW_TAG_formal_parameter
     593                            .dwattr $C$DW$85, DW_AT_type(*$C$DW$T$695)
     594                    
     595                            .dwendtag $C$DW$84
     596                    
     597                    
     598                    $C$DW$86        .dwtag  DW_TAG_subprogram
     599                            .dwattr $C$DW$86, DW_AT_name("Ssf_trackingUpdate")
     600                            .dwattr $C$DW$86, DW_AT_TI_symbol_name("Ssf_trackingUpdate")
     601                            .dwattr $C$DW$86, DW_AT_declaration
     602                            .dwattr $C$DW$86, DW_AT_external
     603                            .dwattr $C$DW$86, DW_AT_decl_file("..\Application\ssf.h")
     604                            .dwattr $C$DW$86, DW_AT_decl_line(0xe4)
     605                            .dwattr $C$DW$86, DW_AT_decl_column(0x0d)
TI ARM Assembler PC v18.1.4 Wed Dec 12 18:32:41 2018

Tools Copyright (c) 1996-2018 Texas Instruments Incorporated
C:\Users\DAMIAN\AppData\Local\Temp\{7491C7A3-CB92-4437-A790-AF4273D670A8} PAGE   12

     606                    $C$DW$87        .dwtag  DW_TAG_formal_parameter
     607                            .dwattr $C$DW$87, DW_AT_type(*$C$DW$T$589)
     608                    
     609                            .dwendtag $C$DW$86
     610                    
     611                    
     612                    $C$DW$88        .dwtag  DW_TAG_subprogram
     613                            .dwattr $C$DW$88, DW_AT_name("Ssf_toggleLED")
     614                            .dwattr $C$DW$88, DW_AT_TI_symbol_name("Ssf_toggleLED")
     615                            .dwattr $C$DW$88, DW_AT_type(*$C$DW$T$31)
     616                            .dwattr $C$DW$88, DW_AT_declaration
     617                            .dwattr $C$DW$88, DW_AT_external
     618                            .dwattr $C$DW$88, DW_AT_decl_file("..\Application\ssf.h")
     619                            .dwattr $C$DW$88, DW_AT_decl_line(0x191)
     620                            .dwattr $C$DW$88, DW_AT_decl_column(0x0d)
     621                            .dwendtag $C$DW$88
     622                    
     623                    
     624                    $C$DW$89        .dwtag  DW_TAG_subprogram
     625                            .dwattr $C$DW$89, DW_AT_name("Display_doInit")
     626                            .dwattr $C$DW$89, DW_AT_TI_symbol_name("Display_doInit")
     627                            .dwattr $C$DW$89, DW_AT_declaration
     628                            .dwattr $C$DW$89, DW_AT_external
     629                            .dwattr $C$DW$89, DW_AT_decl_file("C:/ti/simplelink_cc13x0_sdk_2_30_00_20/source/ti/display/Di
     630                            .dwattr $C$DW$89, DW_AT_decl_line(0x2a4)
     631                            .dwattr $C$DW$89, DW_AT_decl_column(0x06)
     632                            .dwendtag $C$DW$89
     633                    
     634                    
     635                    $C$DW$90        .dwtag  DW_TAG_subprogram
     636                            .dwattr $C$DW$90, DW_AT_name("I2C_init")
     637                            .dwattr $C$DW$90, DW_AT_TI_symbol_name("I2C_init")
     638                            .dwattr $C$DW$90, DW_AT_declaration
     639                            .dwattr $C$DW$90, DW_AT_external
     640                            .dwattr $C$DW$90, DW_AT_decl_file("C:/ti/simplelink_cc13x0_sdk_2_30_00_20/source/ti/drivers/I2
     641                            .dwattr $C$DW$90, DW_AT_decl_line(0x2a5)
     642                            .dwattr $C$DW$90, DW_AT_decl_column(0x0d)
     643                            .dwendtag $C$DW$90
     644                    
     645                    
     646                    $C$DW$91        .dwtag  DW_TAG_subprogram
     647                            .dwattr $C$DW$91, DW_AT_name("Display_doOpen")
     648                            .dwattr $C$DW$91, DW_AT_TI_symbol_name("Display_doOpen")
     649                            .dwattr $C$DW$91, DW_AT_type(*$C$DW$T$117)
     650                            .dwattr $C$DW$91, DW_AT_declaration
     651                            .dwattr $C$DW$91, DW_AT_external
     652                            .dwattr $C$DW$91, DW_AT_decl_file("C:/ti/simplelink_cc13x0_sdk_2_30_00_20/source/ti/display/Di
     653                            .dwattr $C$DW$91, DW_AT_decl_line(0x23c)
     654                            .dwattr $C$DW$91, DW_AT_decl_column(0x11)
     655                    $C$DW$92        .dwtag  DW_TAG_formal_parameter
     656                            .dwattr $C$DW$92, DW_AT_type(*$C$DW$T$36)
     657                    
     658                    $C$DW$93        .dwtag  DW_TAG_formal_parameter
     659                            .dwattr $C$DW$93, DW_AT_type(*$C$DW$T$122)
     660                    
TI ARM Assembler PC v18.1.4 Wed Dec 12 18:32:41 2018

Tools Copyright (c) 1996-2018 Texas Instruments Incorporated
C:\Users\DAMIAN\AppData\Local\Temp\{7491C7A3-CB92-4437-A790-AF4273D670A8} PAGE   13

     661                            .dwendtag $C$DW$91
     662                    
     663                    
     664                    $C$DW$94        .dwtag  DW_TAG_subprogram
     665                            .dwattr $C$DW$94, DW_AT_name("I2C_Params_init")
     666                            .dwattr $C$DW$94, DW_AT_TI_symbol_name("I2C_Params_init")
     667                            .dwattr $C$DW$94, DW_AT_declaration
     668                            .dwattr $C$DW$94, DW_AT_external
     669                            .dwattr $C$DW$94, DW_AT_decl_file("C:/ti/simplelink_cc13x0_sdk_2_30_00_20/source/ti/drivers/I2
     670                            .dwattr $C$DW$94, DW_AT_decl_line(0x2ca)
     671                            .dwattr $C$DW$94, DW_AT_decl_column(0x0d)
     672                    $C$DW$95        .dwtag  DW_TAG_formal_parameter
     673                            .dwattr $C$DW$95, DW_AT_type(*$C$DW$T$167)
     674                    
     675                            .dwendtag $C$DW$94
     676                    
     677                    
     678                    $C$DW$96        .dwtag  DW_TAG_subprogram
     679                            .dwattr $C$DW$96, DW_AT_name("I2C_open")
     680                            .dwattr $C$DW$96, DW_AT_TI_symbol_name("I2C_open")
     681                            .dwattr $C$DW$96, DW_AT_type(*$C$DW$T$153)
     682                            .dwattr $C$DW$96, DW_AT_declaration
     683                            .dwattr $C$DW$96, DW_AT_external
     684                            .dwattr $C$DW$96, DW_AT_decl_file("C:/ti/simplelink_cc13x0_sdk_2_30_00_20/source/ti/drivers/I2
     685                            .dwattr $C$DW$96, DW_AT_decl_line(0x2bc)
     686                            .dwattr $C$DW$96, DW_AT_decl_column(0x13)
     687                    $C$DW$97        .dwtag  DW_TAG_formal_parameter
     688                            .dwattr $C$DW$97, DW_AT_type(*$C$DW$T$102)
     689                    
     690                    $C$DW$98        .dwtag  DW_TAG_formal_parameter
     691                            .dwattr $C$DW$98, DW_AT_type(*$C$DW$T$167)
     692                    
     693                            .dwendtag $C$DW$96
     694                    
     695                    
     696                    $C$DW$99        .dwtag  DW_TAG_subprogram
     697                            .dwattr $C$DW$99, DW_AT_name("Display_doPrintf")
     698                            .dwattr $C$DW$99, DW_AT_TI_symbol_name("Display_doPrintf")
     699                            .dwattr $C$DW$99, DW_AT_declaration
     700                            .dwattr $C$DW$99, DW_AT_external
     701                            .dwattr $C$DW$99, DW_AT_decl_file("C:/ti/simplelink_cc13x0_sdk_2_30_00_20/source/ti/display/Di
     702                            .dwattr $C$DW$99, DW_AT_decl_line(0x266)
     703                            .dwattr $C$DW$99, DW_AT_decl_column(0x07)
     704                    $C$DW$100       .dwtag  DW_TAG_formal_parameter
     705                            .dwattr $C$DW$100, DW_AT_type(*$C$DW$T$117)
     706                    
     707                    $C$DW$101       .dwtag  DW_TAG_formal_parameter
     708                            .dwattr $C$DW$101, DW_AT_type(*$C$DW$T$27)
     709                    
     710                    $C$DW$102       .dwtag  DW_TAG_formal_parameter
     711                            .dwattr $C$DW$102, DW_AT_type(*$C$DW$T$27)
     712                    
     713                    $C$DW$103       .dwtag  DW_TAG_formal_parameter
     714                            .dwattr $C$DW$103, DW_AT_type(*$C$DW$T$131)
     715                    
TI ARM Assembler PC v18.1.4 Wed Dec 12 18:32:41 2018

Tools Copyright (c) 1996-2018 Texas Instruments Incorporated
C:\Users\DAMIAN\AppData\Local\Temp\{7491C7A3-CB92-4437-A790-AF4273D670A8} PAGE   14

     716                    $C$DW$104       .dwtag  DW_TAG_unspecified_parameters
     717                    
     718                            .dwendtag $C$DW$99
     719                    
     720                    
     721                    $C$DW$105       .dwtag  DW_TAG_subprogram
     722                            .dwattr $C$DW$105, DW_AT_name("I2C_transfer")
     723                            .dwattr $C$DW$105, DW_AT_TI_symbol_name("I2C_transfer")
     724                            .dwattr $C$DW$105, DW_AT_type(*$C$DW$T$31)
     725                            .dwattr $C$DW$105, DW_AT_declaration
     726                            .dwattr $C$DW$105, DW_AT_external
     727                            .dwattr $C$DW$105, DW_AT_decl_file("C:/ti/simplelink_cc13x0_sdk_2_30_00_20/source/ti/drivers/I
     728                            .dwattr $C$DW$105, DW_AT_decl_line(0x2ff)
     729                            .dwattr $C$DW$105, DW_AT_decl_column(0x0d)
     730                    $C$DW$106       .dwtag  DW_TAG_formal_parameter
     731                            .dwattr $C$DW$106, DW_AT_type(*$C$DW$T$153)
     732                    
     733                    $C$DW$107       .dwtag  DW_TAG_formal_parameter
     734                            .dwattr $C$DW$107, DW_AT_type(*$C$DW$T$172)
     735                    
     736                            .dwendtag $C$DW$105
     737                    
     738                    
     739                    $C$DW$108       .dwtag  DW_TAG_subprogram
     740                            .dwattr $C$DW$108, DW_AT_name("I2C_close")
     741                            .dwattr $C$DW$108, DW_AT_TI_symbol_name("I2C_close")
     742                            .dwattr $C$DW$108, DW_AT_declaration
     743                            .dwattr $C$DW$108, DW_AT_external
     744                            .dwattr $C$DW$108, DW_AT_decl_file("C:/ti/simplelink_cc13x0_sdk_2_30_00_20/source/ti/drivers/I
     745                            .dwattr $C$DW$108, DW_AT_decl_line(0x273)
     746                            .dwattr $C$DW$108, DW_AT_decl_column(0x0d)
     747                    $C$DW$109       .dwtag  DW_TAG_formal_parameter
     748                            .dwattr $C$DW$109, DW_AT_type(*$C$DW$T$153)
     749                    
     750                            .dwendtag $C$DW$108
     751                    
     752                    
     753                    $C$DW$110       .dwtag  DW_TAG_subprogram
     754                            .dwattr $C$DW$110, DW_AT_name("ApiMac_mlmeGetReqUint32")
     755                            .dwattr $C$DW$110, DW_AT_TI_symbol_name("ApiMac_mlmeGetReqUint32")
     756                            .dwattr $C$DW$110, DW_AT_type(*$C$DW$T$227)
     757                            .dwattr $C$DW$110, DW_AT_declaration
     758                            .dwattr $C$DW$110, DW_AT_external
     759                            .dwattr $C$DW$110, DW_AT_decl_file("..\Application\api_mac.h")
     760                            .dwattr $C$DW$110, DW_AT_decl_line(0xa58)
     761                            .dwattr $C$DW$110, DW_AT_decl_column(0x18)
     762                    $C$DW$111       .dwtag  DW_TAG_formal_parameter
     763                            .dwattr $C$DW$111, DW_AT_type(*$C$DW$T$524)
     764                    
     765                    $C$DW$112       .dwtag  DW_TAG_formal_parameter
     766                            .dwattr $C$DW$112, DW_AT_type(*$C$DW$T$74)
     767                    
     768                            .dwendtag $C$DW$110
     769                    
     770                    
TI ARM Assembler PC v18.1.4 Wed Dec 12 18:32:41 2018

Tools Copyright (c) 1996-2018 Texas Instruments Incorporated
C:\Users\DAMIAN\AppData\Local\Temp\{7491C7A3-CB92-4437-A790-AF4273D670A8} PAGE   15

     771                    $C$DW$113       .dwtag  DW_TAG_subprogram
     772                            .dwattr $C$DW$113, DW_AT_name("ApiMac_mlmeGetReqArray")
     773                            .dwattr $C$DW$113, DW_AT_TI_symbol_name("ApiMac_mlmeGetReqArray")
     774                            .dwattr $C$DW$113, DW_AT_type(*$C$DW$T$227)
     775                            .dwattr $C$DW$113, DW_AT_declaration
     776                            .dwattr $C$DW$113, DW_AT_external
     777                            .dwattr $C$DW$113, DW_AT_decl_file("..\Application\api_mac.h")
     778                            .dwattr $C$DW$113, DW_AT_decl_line(0xa65)
     779                            .dwattr $C$DW$113, DW_AT_decl_column(0x18)
     780                    $C$DW$114       .dwtag  DW_TAG_formal_parameter
     781                            .dwattr $C$DW$114, DW_AT_type(*$C$DW$T$527)
     782                    
     783                    $C$DW$115       .dwtag  DW_TAG_formal_parameter
     784                            .dwattr $C$DW$115, DW_AT_type(*$C$DW$T$54)
     785                    
     786                            .dwendtag $C$DW$113
     787                    
     788                    
     789                    $C$DW$116       .dwtag  DW_TAG_subprogram
     790                            .dwattr $C$DW$116, DW_AT_name("Ssf_sensorReadingUpdate")
     791                            .dwattr $C$DW$116, DW_AT_TI_symbol_name("Ssf_sensorReadingUpdate")
     792                            .dwattr $C$DW$116, DW_AT_declaration
     793                            .dwattr $C$DW$116, DW_AT_external
     794                            .dwattr $C$DW$116, DW_AT_decl_file("..\Application\ssf.h")
     795                            .dwattr $C$DW$116, DW_AT_decl_line(0xdb)
     796                            .dwattr $C$DW$116, DW_AT_decl_column(0x0d)
     797                    $C$DW$117       .dwtag  DW_TAG_formal_parameter
     798                            .dwattr $C$DW$117, DW_AT_type(*$C$DW$T$669)
     799                    
     800                            .dwendtag $C$DW$116
     801                    
     802                    
     803                    $C$DW$118       .dwtag  DW_TAG_subprogram
     804                            .dwattr $C$DW$118, DW_AT_name("Ssf_malloc")
     805                            .dwattr $C$DW$118, DW_AT_TI_symbol_name("Ssf_malloc")
     806                            .dwattr $C$DW$118, DW_AT_type(*$C$DW$T$3)
     807                            .dwattr $C$DW$118, DW_AT_declaration
     808                            .dwattr $C$DW$118, DW_AT_external
     809                            .dwattr $C$DW$118, DW_AT_decl_file("..\Application\ssf.h")
     810                            .dwattr $C$DW$118, DW_AT_decl_line(0xed)
     811                            .dwattr $C$DW$118, DW_AT_decl_column(0x0e)
     812                    $C$DW$119       .dwtag  DW_TAG_formal_parameter
     813                            .dwattr $C$DW$119, DW_AT_type(*$C$DW$T$34)
     814                    
     815                            .dwendtag $C$DW$118
     816                    
     817                    
     818                    $C$DW$120       .dwtag  DW_TAG_subprogram
     819                            .dwattr $C$DW$120, DW_AT_name("Util_bufferUint16")
     820                            .dwattr $C$DW$120, DW_AT_TI_symbol_name("Util_bufferUint16")
     821                            .dwattr $C$DW$120, DW_AT_type(*$C$DW$T$54)
     822                            .dwattr $C$DW$120, DW_AT_declaration
     823                            .dwattr $C$DW$120, DW_AT_external
     824                            .dwattr $C$DW$120, DW_AT_decl_file("..\Application\util.h")
     825                            .dwattr $C$DW$120, DW_AT_decl_line(0xe7)
TI ARM Assembler PC v18.1.4 Wed Dec 12 18:32:41 2018

Tools Copyright (c) 1996-2018 Texas Instruments Incorporated
C:\Users\DAMIAN\AppData\Local\Temp\{7491C7A3-CB92-4437-A790-AF4273D670A8} PAGE   16

     826                            .dwattr $C$DW$120, DW_AT_decl_column(0x11)
     827                    $C$DW$121       .dwtag  DW_TAG_formal_parameter
     828                            .dwattr $C$DW$121, DW_AT_type(*$C$DW$T$54)
     829                    
     830                    $C$DW$122       .dwtag  DW_TAG_formal_parameter
     831                            .dwattr $C$DW$122, DW_AT_type(*$C$DW$T$34)
     832                    
     833                            .dwendtag $C$DW$120
     834                    
     835                    
     836                    $C$DW$123       .dwtag  DW_TAG_subprogram
     837                            .dwattr $C$DW$123, DW_AT_name("Util_bufferUint32")
     838                            .dwattr $C$DW$123, DW_AT_TI_symbol_name("Util_bufferUint32")
     839                            .dwattr $C$DW$123, DW_AT_type(*$C$DW$T$54)
     840                            .dwattr $C$DW$123, DW_AT_declaration
     841                            .dwattr $C$DW$123, DW_AT_external
     842                            .dwattr $C$DW$123, DW_AT_decl_file("..\Application\util.h")
     843                            .dwattr $C$DW$123, DW_AT_decl_line(0xf1)
     844                            .dwattr $C$DW$123, DW_AT_decl_column(0x11)
     845                    $C$DW$124       .dwtag  DW_TAG_formal_parameter
     846                            .dwattr $C$DW$124, DW_AT_type(*$C$DW$T$54)
     847                    
     848                    $C$DW$125       .dwtag  DW_TAG_formal_parameter
     849                            .dwattr $C$DW$125, DW_AT_type(*$C$DW$T$36)
     850                    
     851                            .dwendtag $C$DW$123
     852                    
     853                    
     854                    $C$DW$126       .dwtag  DW_TAG_subprogram
     855                            .dwattr $C$DW$126, DW_AT_name("Ssf_free")
     856                            .dwattr $C$DW$126, DW_AT_TI_symbol_name("Ssf_free")
     857                            .dwattr $C$DW$126, DW_AT_declaration
     858                            .dwattr $C$DW$126, DW_AT_external
     859                            .dwattr $C$DW$126, DW_AT_decl_file("..\Application\ssf.h")
     860                            .dwattr $C$DW$126, DW_AT_decl_line(0xf4)
     861                            .dwattr $C$DW$126, DW_AT_decl_column(0x0d)
     862                    $C$DW$127       .dwtag  DW_TAG_formal_parameter
     863                            .dwattr $C$DW$127, DW_AT_type(*$C$DW$T$3)
     864                    
     865                            .dwendtag $C$DW$126
     866                    
     867                    
     868                    $C$DW$128       .dwtag  DW_TAG_subprogram
     869                            .dwattr $C$DW$128, DW_AT_name("Util_parseUint16")
     870                            .dwattr $C$DW$128, DW_AT_TI_symbol_name("Util_parseUint16")
     871                            .dwattr $C$DW$128, DW_AT_type(*$C$DW$T$34)
     872                            .dwattr $C$DW$128, DW_AT_declaration
     873                            .dwattr $C$DW$128, DW_AT_external
     874                            .dwattr $C$DW$128, DW_AT_decl_file("..\Application\util.h")
     875                            .dwattr $C$DW$128, DW_AT_decl_line(0xd4)
     876                            .dwattr $C$DW$128, DW_AT_decl_column(0x11)
     877                    $C$DW$129       .dwtag  DW_TAG_formal_parameter
     878                            .dwattr $C$DW$129, DW_AT_type(*$C$DW$T$54)
     879                    
     880                            .dwendtag $C$DW$128
TI ARM Assembler PC v18.1.4 Wed Dec 12 18:32:41 2018

Tools Copyright (c) 1996-2018 Texas Instruments Incorporated
C:\Users\DAMIAN\AppData\Local\Temp\{7491C7A3-CB92-4437-A790-AF4273D670A8} PAGE   17

     881                    
     882                    
     883                    $C$DW$130       .dwtag  DW_TAG_subprogram
     884                            .dwattr $C$DW$130, DW_AT_name("Util_parseUint32")
     885                            .dwattr $C$DW$130, DW_AT_TI_symbol_name("Util_parseUint32")
     886                            .dwattr $C$DW$130, DW_AT_type(*$C$DW$T$36)
     887                            .dwattr $C$DW$130, DW_AT_declaration
     888                            .dwattr $C$DW$130, DW_AT_external
     889                            .dwattr $C$DW$130, DW_AT_decl_file("..\Application\util.h")
     890                            .dwattr $C$DW$130, DW_AT_decl_line(0xdd)
     891                            .dwattr $C$DW$130, DW_AT_decl_column(0x11)
     892                    $C$DW$131       .dwtag  DW_TAG_formal_parameter
     893                            .dwattr $C$DW$131, DW_AT_type(*$C$DW$T$54)
     894                    
     895                            .dwendtag $C$DW$130
     896                    
     897                    
     898                    $C$DW$132       .dwtag  DW_TAG_subprogram
     899                            .dwattr $C$DW$132, DW_AT_name("ApiMac_randomByte")
     900                            .dwattr $C$DW$132, DW_AT_TI_symbol_name("ApiMac_randomByte")
     901                            .dwattr $C$DW$132, DW_AT_type(*$C$DW$T$27)
     902                            .dwattr $C$DW$132, DW_AT_declaration
     903                            .dwattr $C$DW$132, DW_AT_external
     904                            .dwattr $C$DW$132, DW_AT_decl_file("..\Application\api_mac.h")
     905                            .dwattr $C$DW$132, DW_AT_decl_line(0xc6b)
     906                            .dwattr $C$DW$132, DW_AT_decl_column(0x10)
     907                            .dwendtag $C$DW$132
     908                    
     909                    
     910                    $C$DW$133       .dwtag  DW_TAG_subprogram
     911                            .dwattr $C$DW$133, DW_AT_name("Ssf_configurationUpdate")
     912                            .dwattr $C$DW$133, DW_AT_TI_symbol_name("Ssf_configurationUpdate")
     913                            .dwattr $C$DW$133, DW_AT_declaration
     914                            .dwattr $C$DW$133, DW_AT_external
     915                            .dwattr $C$DW$133, DW_AT_decl_file("..\Application\ssf.h")
     916                            .dwattr $C$DW$133, DW_AT_decl_line(0xca)
     917                            .dwattr $C$DW$133, DW_AT_decl_column(0x0d)
     918                    $C$DW$134       .dwtag  DW_TAG_formal_parameter
     919                            .dwattr $C$DW$134, DW_AT_type(*$C$DW$T$661)
     920                    
     921                            .dwendtag $C$DW$133
     922                    
     923                    
     924                    $C$DW$135       .dwtag  DW_TAG_subprogram
     925                            .dwattr $C$DW$135, DW_AT_name("Ssf_OnLED")
     926                            .dwattr $C$DW$135, DW_AT_TI_symbol_name("Ssf_OnLED")
     927                            .dwattr $C$DW$135, DW_AT_declaration
     928                            .dwattr $C$DW$135, DW_AT_external
     929                            .dwattr $C$DW$135, DW_AT_decl_file("..\Application\ssf.h")
     930                            .dwattr $C$DW$135, DW_AT_decl_line(0x196)
     931                            .dwattr $C$DW$135, DW_AT_decl_column(0x0d)
     932                            .dwendtag $C$DW$135
     933                    
     934                    
     935                    $C$DW$136       .dwtag  DW_TAG_subprogram
TI ARM Assembler PC v18.1.4 Wed Dec 12 18:32:41 2018

Tools Copyright (c) 1996-2018 Texas Instruments Incorporated
C:\Users\DAMIAN\AppData\Local\Temp\{7491C7A3-CB92-4437-A790-AF4273D670A8} PAGE   18

     936                            .dwattr $C$DW$136, DW_AT_name("Ssf_OffLED")
     937                            .dwattr $C$DW$136, DW_AT_TI_symbol_name("Ssf_OffLED")
     938                            .dwattr $C$DW$136, DW_AT_declaration
     939                            .dwattr $C$DW$136, DW_AT_external
     940                            .dwattr $C$DW$136, DW_AT_decl_file("..\Application\ssf.h")
     941                            .dwattr $C$DW$136, DW_AT_decl_line(0x19b)
     942                            .dwattr $C$DW$136, DW_AT_decl_column(0x0d)
     943                            .dwendtag $C$DW$136
     944                    
     945                    
     946                    $C$DW$137       .dwtag  DW_TAG_subprogram
     947                            .dwattr $C$DW$137, DW_AT_name("Ssf_networkUpdate")
     948                            .dwattr $C$DW$137, DW_AT_TI_symbol_name("Ssf_networkUpdate")
     949                            .dwattr $C$DW$137, DW_AT_declaration
     950                            .dwattr $C$DW$137, DW_AT_external
     951                            .dwattr $C$DW$137, DW_AT_decl_file("..\Application\ssf.h")
     952                            .dwattr $C$DW$137, DW_AT_decl_line(0x76)
     953                            .dwattr $C$DW$137, DW_AT_decl_column(0x0d)
     954                    $C$DW$138       .dwtag  DW_TAG_formal_parameter
     955                            .dwattr $C$DW$138, DW_AT_type(*$C$DW$T$31)
     956                    
     957                    $C$DW$139       .dwtag  DW_TAG_formal_parameter
     958                            .dwattr $C$DW$139, DW_AT_type(*$C$DW$T$214)
     959                    
     960                    $C$DW$140       .dwtag  DW_TAG_formal_parameter
     961                            .dwattr $C$DW$140, DW_AT_type(*$C$DW$T$216)
     962                    
     963                            .dwendtag $C$DW$137
     964                    
     965                    
     966                    $C$DW$141       .dwtag  DW_TAG_subprogram
     967                            .dwattr $C$DW$141, DW_AT_name("Ssf_clearNetworkInfo")
     968                            .dwattr $C$DW$141, DW_AT_TI_symbol_name("Ssf_clearNetworkInfo")
     969                            .dwattr $C$DW$141, DW_AT_declaration
     970                            .dwattr $C$DW$141, DW_AT_external
     971                            .dwattr $C$DW$141, DW_AT_decl_file("..\Application\ssf.h")
     972                            .dwattr $C$DW$141, DW_AT_decl_line(0x17d)
     973                            .dwattr $C$DW$141, DW_AT_decl_column(0x0d)
     974                            .dwendtag $C$DW$141
     975                    
     976                    
     977                    $C$DW$142       .dwtag  DW_TAG_subprogram
     978                            .dwattr $C$DW$142, DW_AT_name("Ssf_stateChangeUpdate")
     979                            .dwattr $C$DW$142, DW_AT_TI_symbol_name("Ssf_stateChangeUpdate")
     980                            .dwattr $C$DW$142, DW_AT_declaration
     981                            .dwattr $C$DW$142, DW_AT_external
     982                            .dwattr $C$DW$142, DW_AT_decl_file("..\Application\ssf.h")
     983                            .dwattr $C$DW$142, DW_AT_decl_line(0xac)
     984                            .dwattr $C$DW$142, DW_AT_decl_column(0x0d)
     985                    $C$DW$143       .dwtag  DW_TAG_formal_parameter
     986                            .dwattr $C$DW$143, DW_AT_type(*$C$DW$T$232)
     987                    
     988                            .dwendtag $C$DW$142
     989                    
     990                    
TI ARM Assembler PC v18.1.4 Wed Dec 12 18:32:41 2018

Tools Copyright (c) 1996-2018 Texas Instruments Incorporated
C:\Users\DAMIAN\AppData\Local\Temp\{7491C7A3-CB92-4437-A790-AF4273D670A8} PAGE   19

     991                    $C$DW$144       .dwtag  DW_TAG_subprogram
     992                            .dwattr $C$DW$144, DW_AT_name("Ssf_readTempSensor")
     993                            .dwattr $C$DW$144, DW_AT_TI_symbol_name("Ssf_readTempSensor")
     994                            .dwattr $C$DW$144, DW_AT_type(*$C$DW$T$257)
     995                            .dwattr $C$DW$144, DW_AT_declaration
     996                            .dwattr $C$DW$144, DW_AT_external
     997                            .dwattr $C$DW$144, DW_AT_decl_file("..\Application\ssf.h")
     998                            .dwattr $C$DW$144, DW_AT_decl_line(0x18a)
     999                            .dwattr $C$DW$144, DW_AT_decl_column(0x10)
    1000                            .dwendtag $C$DW$144
    1001                    
    1002 00000000                   .sect   ".data:$O1$$", RW
    1003                            .align  4
    1004                            .elfsym ||$O1$$||,SYM_SIZE(208)
    1005 00000000           ||$O1$$||:
    1006 00000000 00000000          .bits   0,8                     ; $O1$$.rejoining @ 0
    1007 00000000 00000000          .bits   0,8                     ; $O1$$.deviceTxMsduHandle @ 8
    1008 00000000 00000000          .bits   0,16                    ; $O1$$.Sensor_events @ 16
    1009 00000004 00000000          .bits   0,16                    ; $O1$$.lightSensor.rawData @ 32
    1010 00000004 00000000          .bits   0,16                    ; $O1$$.lastRcvdBroadcastMsgId @ 48
    1011 00000008                   .space  8
    1012 00000010 00000000          .bits   0,32                    ; $O1$$.joinTimeTicks @ 128
    1013 00000014 00000000          .bits   0,32                    ; $O1$$.startSensorMsgTimeStamp @ 160
    1014 00000018 00000000          .bits   0,16                    ; $O1$$.tempSensor.ambienceTemp @ 192
    1015 00000018 00000000          .bits   0,16
    1016 0000001c 00000000          .bits   0,16                    ; $O1$$.humiditySensor.temp @ 224
    1017 0000001c 00000000          .bits   0,16
    1018 00000020 00000000          .bits   0,16                    ; $O1$$.collectorAddr.addr.shortAddr @ 256
    1019 00000022                   .space  22
    1020 00000038 00000000          .bits   0,16                    ; $O1$$.parentInfo.devInfo.panID @ 448
    1021 0000003a                   .space  14
    1022 00000048 00000000!         .bits   jdllcJoinedCb,32                ; $O1$$.jdllcCallbacks.pJoinedCb @ 576
    1023 0000004c 00000000!         .bits   jdllcDisassocIndCb,32           ; $O1$$.jdllcCallbacks.pDisassocIndCb @ 608
    1024 00000050 00000000!         .bits   jdllcDisassocCnfCb,32           ; $O1$$.jdllcCallbacks.pDisassocCnfCb @ 640
    1025 00000054 00000000!         .bits   jdllcStateChangeCb,32           ; $O1$$.jdllcCallbacks.pStateChangeCb @ 672
    1026 00000058 00000000          .bits   0,16                    ; $O1$$.Sensor_msgStats.joinAttempts @ 704
    1027 0000005a                   .space  46
    1028 00000088 00000000          .bits   0,32                    ; $O1$$.Sensor_macCallbacks.pAssocIndCb @ 1088
    1029 0000008c 00000000          .bits   0,32                    ; $O1$$.Sensor_macCallbacks.pAssocCnfCb @ 1120
    1030 00000090 00000000          .bits   0,32                    ; $O1$$.Sensor_macCallbacks.pDisassociateIndCb @ 1152
    1031 00000094 00000000          .bits   0,32                    ; $O1$$.Sensor_macCallbacks.pDisassociateCnfCb @ 1184
    1032 00000098 00000000          .bits   0,32                    ; $O1$$.Sensor_macCallbacks.pBeaconNotifyIndCb @ 1216
    1033 0000009c 00000000          .bits   0,32                    ; $O1$$.Sensor_macCallbacks.pOrphanIndCb @ 1248
    1034 000000a0 00000000          .bits   0,32                    ; $O1$$.Sensor_macCallbacks.pScanCnfCb @ 1280
    1035 000000a4 00000000          .bits   0,32                    ; $O1$$.Sensor_macCallbacks.pStartCnfCb @ 1312
    1036 000000a8 00000000          .bits   0,32                    ; $O1$$.Sensor_macCallbacks.pSyncLossIndCb @ 1344
    1037 000000ac 00000000          .bits   0,32                    ; $O1$$.Sensor_macCallbacks.pPollCnfCb @ 1376
    1038 000000b0 00000000          .bits   0,32                    ; $O1$$.Sensor_macCallbacks.pCommStatusCb @ 1408
    1039 000000b4 00000000          .bits   0,32                    ; $O1$$.Sensor_macCallbacks.pPollIndCb @ 1440
    1040 000000b8 00000000!         .bits   dataCnfCB,32            ; $O1$$.Sensor_macCallbacks.pDataCnfCb @ 1472
    1041 000000bc 00000000!         .bits   dataIndCB,32            ; $O1$$.Sensor_macCallbacks.pDataIndCb @ 1504
    1042 000000c0 00000000          .bits   0,32                    ; $O1$$.Sensor_macCallbacks.pPurgeCnfCb @ 1536
    1043 000000c4 00000000          .bits   0,32                    ; $O1$$.Sensor_macCallbacks.pWsAsyncIndCb @ 1568
    1044 000000c8 00000000          .bits   0,32                    ; $O1$$.Sensor_macCallbacks.pWsAsyncCnfCb @ 1600
    1045 000000cc 00000000          .bits   0,32                    ; $O1$$.Sensor_macCallbacks.pUnprocessedCb @ 1632
TI ARM Assembler PC v18.1.4 Wed Dec 12 18:32:41 2018

Tools Copyright (c) 1996-2018 Texas Instruments Incorporated
C:\Users\DAMIAN\AppData\Local\Temp\{7491C7A3-CB92-4437-A790-AF4273D670A8} PAGE   20

    1046                    
    1047                    
    1048                    ;*********************************************************************
    1049                    ;* GROUPED GLOBALS FOR $O1$$                                         *
    1050                    ;*********************************************************************
    1051          00000000! rejoining:      .set    ||$O1$$||+0
    1052                    $C$DW$145       .dwtag  DW_TAG_variable
    1053                            .dwattr $C$DW$145, DW_AT_name("rejoining")
    1054                            .dwattr $C$DW$145, DW_AT_TI_symbol_name("rejoining")
    1055                            .dwattr $C$DW$145, DW_AT_type(*$C$DW$T$31)
    1056                            .dwattr $C$DW$145, DW_AT_location[DW_OP_addr rejoining]
    1057                            .dwattr $C$DW$145, DW_AT_decl_file("../Application/sensor.c")
    1058                            .dwattr $C$DW$145, DW_AT_decl_line(0x9b)
    1059                            .dwattr $C$DW$145, DW_AT_decl_column(0x0d)
    1060                    
    1061          00000001! deviceTxMsduHandle:     .set    ||$O1$$||+1
    1062                    $C$DW$146       .dwtag  DW_TAG_variable
    1063                            .dwattr $C$DW$146, DW_AT_name("deviceTxMsduHandle")
    1064                            .dwattr $C$DW$146, DW_AT_TI_symbol_name("deviceTxMsduHandle")
    1065                            .dwattr $C$DW$146, DW_AT_type(*$C$DW$T$27)
    1066                            .dwattr $C$DW$146, DW_AT_location[DW_OP_addr deviceTxMsduHandle]
    1067                            .dwattr $C$DW$146, DW_AT_decl_file("../Application/sensor.c")
    1068                            .dwattr $C$DW$146, DW_AT_decl_line(0xa7)
    1069                            .dwattr $C$DW$146, DW_AT_decl_column(0x10)
    1070                    
    1071          00000002! Sensor_events:  .set    ||$O1$$||+2
    1072                            .global Sensor_events
    1073                    $C$DW$147       .dwtag  DW_TAG_variable
    1074                            .dwattr $C$DW$147, DW_AT_name("Sensor_events")
    1075                            .dwattr $C$DW$147, DW_AT_TI_symbol_name("Sensor_events")
    1076                            .dwattr $C$DW$147, DW_AT_location[DW_OP_addr Sensor_events]
    1077                            .dwattr $C$DW$147, DW_AT_type(*$C$DW$T$34)
    1078                            .dwattr $C$DW$147, DW_AT_external
    1079                            .dwattr $C$DW$147, DW_AT_decl_file("../Application/sensor.c")
    1080                            .dwattr $C$DW$147, DW_AT_decl_line(0x88)
    1081                            .dwattr $C$DW$147, DW_AT_decl_column(0x0a)
    1082                    
    1083          00000004! lightSensor:    .set    ||$O1$$||+4
    1084                    $C$DW$148       .dwtag  DW_TAG_variable
    1085                            .dwattr $C$DW$148, DW_AT_name("lightSensor")
    1086                            .dwattr $C$DW$148, DW_AT_TI_symbol_name("lightSensor")
    1087                            .dwattr $C$DW$148, DW_AT_type(*$C$DW$T$251)
    1088                            .dwattr $C$DW$148, DW_AT_location[DW_OP_addr lightSensor]
    1089                            .dwattr $C$DW$148, DW_AT_decl_file("../Application/sensor.c")
    1090                            .dwattr $C$DW$148, DW_AT_decl_line(0xb6)
    1091                            .dwattr $C$DW$148, DW_AT_decl_column(0x21)
    1092                    
    1093          00000006! lastRcvdBroadcastMsgId: .set    ||$O1$$||+6
    1094                    $C$DW$149       .dwtag  DW_TAG_variable
    1095                            .dwattr $C$DW$149, DW_AT_name("lastRcvdBroadcastMsgId")
    1096                            .dwattr $C$DW$149, DW_AT_TI_symbol_name("lastRcvdBroadcastMsgId")
    1097                            .dwattr $C$DW$149, DW_AT_type(*$C$DW$T$34)
    1098                            .dwattr $C$DW$149, DW_AT_location[DW_OP_addr lastRcvdBroadcastMsgId]
    1099                            .dwattr $C$DW$149, DW_AT_decl_file("../Application/sensor.c")
    1100                            .dwattr $C$DW$149, DW_AT_decl_line(0xc2)
TI ARM Assembler PC v18.1.4 Wed Dec 12 18:32:41 2018

Tools Copyright (c) 1996-2018 Texas Instruments Incorporated
C:\Users\DAMIAN\AppData\Local\Temp\{7491C7A3-CB92-4437-A790-AF4273D670A8} PAGE   21

    1101                            .dwattr $C$DW$149, DW_AT_decl_column(0x11)
    1102                    
    1103          00000008! display:        .set    ||$O1$$||+8
    1104                    $C$DW$150       .dwtag  DW_TAG_variable
    1105                            .dwattr $C$DW$150, DW_AT_name("display")
    1106                            .dwattr $C$DW$150, DW_AT_TI_symbol_name("display")
    1107                            .dwattr $C$DW$150, DW_AT_type(*$C$DW$T$117)
    1108                            .dwattr $C$DW$150, DW_AT_location[DW_OP_addr display]
    1109                            .dwattr $C$DW$150, DW_AT_decl_file("../Application/sensor.c")
    1110                            .dwattr $C$DW$150, DW_AT_decl_line(0x41)
    1111                            .dwattr $C$DW$150, DW_AT_decl_column(0x17)
    1112                    
    1113          0000000C! sem:    .set    ||$O1$$||+12
    1114                    $C$DW$151       .dwtag  DW_TAG_variable
    1115                            .dwattr $C$DW$151, DW_AT_name("sem")
    1116                            .dwattr $C$DW$151, DW_AT_TI_symbol_name("sem")
    1117                            .dwattr $C$DW$151, DW_AT_type(*$C$DW$T$3)
    1118                            .dwattr $C$DW$151, DW_AT_location[DW_OP_addr sem]
    1119                            .dwattr $C$DW$151, DW_AT_decl_file("../Application/sensor.c")
    1120                            .dwattr $C$DW$151, DW_AT_decl_line(0x98)
    1121                            .dwattr $C$DW$151, DW_AT_decl_column(0x0e)
    1122                    
    1123          00000010! joinTimeTicks:  .set    ||$O1$$||+16
    1124                    $C$DW$152       .dwtag  DW_TAG_variable
    1125                            .dwattr $C$DW$152, DW_AT_name("joinTimeTicks")
    1126                            .dwattr $C$DW$152, DW_AT_TI_symbol_name("joinTimeTicks")
    1127                            .dwattr $C$DW$152, DW_AT_type(*$C$DW$T$469)
    1128                            .dwattr $C$DW$152, DW_AT_location[DW_OP_addr joinTimeTicks]
    1129                            .dwattr $C$DW$152, DW_AT_decl_file("../Application/sensor.c")
    1130                            .dwattr $C$DW$152, DW_AT_decl_line(0xa1)
    1131                            .dwattr $C$DW$152, DW_AT_decl_column(0x16)
    1132                    
    1133          00000014! startSensorMsgTimeStamp:        .set    ||$O1$$||+20
    1134                    $C$DW$153       .dwtag  DW_TAG_variable
    1135                            .dwattr $C$DW$153, DW_AT_name("startSensorMsgTimeStamp")
    1136                            .dwattr $C$DW$153, DW_AT_TI_symbol_name("startSensorMsgTimeStamp")
    1137                            .dwattr $C$DW$153, DW_AT_type(*$C$DW$T$36)
    1138                            .dwattr $C$DW$153, DW_AT_location[DW_OP_addr startSensorMsgTimeStamp]
    1139                            .dwattr $C$DW$153, DW_AT_decl_file("../Application/sensor.c")
    1140                            .dwattr $C$DW$153, DW_AT_decl_line(0xa4)
    1141                            .dwattr $C$DW$153, DW_AT_decl_column(0x11)
    1142                    
    1143          00000018! tempSensor:     .set    ||$O1$$||+24
    1144                    $C$DW$154       .dwtag  DW_TAG_variable
    1145                            .dwattr $C$DW$154, DW_AT_name("tempSensor")
    1146                            .dwattr $C$DW$154, DW_AT_TI_symbol_name("tempSensor")
    1147                            .dwattr $C$DW$154, DW_AT_type(*$C$DW$T$250)
    1148                            .dwattr $C$DW$154, DW_AT_location[DW_OP_addr tempSensor]
    1149                            .dwattr $C$DW$154, DW_AT_decl_file("../Application/sensor.c")
    1150                            .dwattr $C$DW$154, DW_AT_decl_line(0xaf)
    1151                            .dwattr $C$DW$154, DW_AT_decl_column(0x20)
    1152                    
    1153          0000001C! humiditySensor: .set    ||$O1$$||+28
    1154                    $C$DW$155       .dwtag  DW_TAG_variable
    1155                            .dwattr $C$DW$155, DW_AT_name("humiditySensor")
TI ARM Assembler PC v18.1.4 Wed Dec 12 18:32:41 2018

Tools Copyright (c) 1996-2018 Texas Instruments Incorporated
C:\Users\DAMIAN\AppData\Local\Temp\{7491C7A3-CB92-4437-A790-AF4273D670A8} PAGE   22

    1156                            .dwattr $C$DW$155, DW_AT_TI_symbol_name("humiditySensor")
    1157                            .dwattr $C$DW$155, DW_AT_type(*$C$DW$T$252)
    1158                            .dwattr $C$DW$155, DW_AT_location[DW_OP_addr humiditySensor]
    1159                            .dwattr $C$DW$155, DW_AT_decl_file("../Application/sensor.c")
    1160                            .dwattr $C$DW$155, DW_AT_decl_line(0xbd)
    1161                            .dwattr $C$DW$155, DW_AT_decl_column(0x24)
    1162                    
    1163          00000020! collectorAddr:  .set    ||$O1$$||+32
    1164                    $C$DW$156       .dwtag  DW_TAG_variable
    1165                            .dwattr $C$DW$156, DW_AT_name("collectorAddr")
    1166                            .dwattr $C$DW$156, DW_AT_TI_symbol_name("collectorAddr")
    1167                            .dwattr $C$DW$156, DW_AT_type(*$C$DW$T$372)
    1168                            .dwattr $C$DW$156, DW_AT_location[DW_OP_addr collectorAddr]
    1169                            .dwattr $C$DW$156, DW_AT_decl_file("../Application/sensor.c")
    1170                            .dwattr $C$DW$156, DW_AT_decl_line(0x9e)
    1171                            .dwattr $C$DW$156, DW_AT_decl_column(0x17)
    1172                    
    1173          0000002C! configSettings: .set    ||$O1$$||+44
    1174                    $C$DW$157       .dwtag  DW_TAG_variable
    1175                            .dwattr $C$DW$157, DW_AT_name("configSettings")
    1176                            .dwattr $C$DW$157, DW_AT_TI_symbol_name("configSettings")
    1177                            .dwattr $C$DW$157, DW_AT_type(*$C$DW$T$658)
    1178                            .dwattr $C$DW$157, DW_AT_location[DW_OP_addr configSettings]
    1179                            .dwattr $C$DW$157, DW_AT_decl_file("../Application/sensor.c")
    1180                            .dwattr $C$DW$157, DW_AT_decl_line(0xa9)
    1181                            .dwattr $C$DW$157, DW_AT_decl_column(0x1d)
    1182                    
    1183          00000038! parentInfo:     .set    ||$O1$$||+56
    1184                    $C$DW$158       .dwtag  DW_TAG_variable
    1185                            .dwattr $C$DW$158, DW_AT_name("parentInfo")
    1186                            .dwattr $C$DW$158, DW_AT_TI_symbol_name("parentInfo")
    1187                            .dwattr $C$DW$158, DW_AT_type(*$C$DW$T$215)
    1188                            .dwattr $C$DW$158, DW_AT_location[DW_OP_addr parentInfo]
    1189                            .dwattr $C$DW$158, DW_AT_decl_file("../Application/sensor.c")
    1190                            .dwattr $C$DW$158, DW_AT_decl_line(0xc0)
    1191                            .dwattr $C$DW$158, DW_AT_decl_column(0x16)
    1192                    
    1193          00000048! jdllcCallbacks: .set    ||$O1$$||+72
    1194                    $C$DW$159       .dwtag  DW_TAG_variable
    1195                            .dwattr $C$DW$159, DW_AT_name("jdllcCallbacks")
    1196                            .dwattr $C$DW$159, DW_AT_TI_symbol_name("jdllcCallbacks")
    1197                            .dwattr $C$DW$159, DW_AT_type(*$C$DW$T$654)
    1198                            .dwattr $C$DW$159, DW_AT_location[DW_OP_addr jdllcCallbacks]
    1199                            .dwattr $C$DW$159, DW_AT_decl_file("../Application/sensor.c")
    1200                            .dwattr $C$DW$159, DW_AT_decl_line(0x10b)
    1201                            .dwattr $C$DW$159, DW_AT_decl_column(0x1a)
    1202                    
    1203          00000058! Sensor_msgStats:        .set    ||$O1$$||+88
    1204                            .global Sensor_msgStats
    1205                    $C$DW$160       .dwtag  DW_TAG_variable
    1206                            .dwattr $C$DW$160, DW_AT_name("Sensor_msgStats")
    1207                            .dwattr $C$DW$160, DW_AT_TI_symbol_name("Sensor_msgStats")
    1208                            .dwattr $C$DW$160, DW_AT_location[DW_OP_addr Sensor_msgStats]
    1209                            .dwattr $C$DW$160, DW_AT_type(*$C$DW$T$253)
    1210                            .dwattr $C$DW$160, DW_AT_external
TI ARM Assembler PC v18.1.4 Wed Dec 12 18:32:41 2018

Tools Copyright (c) 1996-2018 Texas Instruments Incorporated
C:\Users\DAMIAN\AppData\Local\Temp\{7491C7A3-CB92-4437-A790-AF4273D670A8} PAGE   23

    1211                            .dwattr $C$DW$160, DW_AT_decl_file("../Application/sensor.c")
    1212                            .dwattr $C$DW$160, DW_AT_decl_line(0x8b)
    1213                            .dwattr $C$DW$160, DW_AT_decl_column(0x17)
    1214                    
    1215          00000088! Sensor_macCallbacks:    .set    ||$O1$$||+136
    1216                    $C$DW$161       .dwtag  DW_TAG_variable
    1217                            .dwattr $C$DW$161, DW_AT_name("Sensor_macCallbacks")
    1218                            .dwattr $C$DW$161, DW_AT_TI_symbol_name("Sensor_macCallbacks")
    1219                            .dwattr $C$DW$161, DW_AT_type(*$C$DW$T$689)
    1220                            .dwattr $C$DW$161, DW_AT_location[DW_OP_addr Sensor_macCallbacks]
    1221                            .dwattr $C$DW$161, DW_AT_decl_file("../Application/sensor.c")
    1222                            .dwattr $C$DW$161, DW_AT_decl_line(0xe3)
    1223                            .dwattr $C$DW$161, DW_AT_decl_column(0x1b)
    1224                    
    1225                    ;       C:\ti\ccsv8\tools\compiler\ti-cgt-arm_18.1.4.LTS\bin\armopt.exe C:/Users/DAMIAN/TIVA_CC1350/se
    1226 00000000                   .sect   ".text:jdllcStateChangeCb"
    1227                            .clink
    1228                            .thumbfunc jdllcStateChangeCb
    1229 00000000                   .thumb
    1230                    
    1231                    $C$DW$162       .dwtag  DW_TAG_subprogram
    1232                            .dwattr $C$DW$162, DW_AT_name("jdllcStateChangeCb")
    1233                            .dwattr $C$DW$162, DW_AT_low_pc(jdllcStateChangeCb)
    1234                            .dwattr $C$DW$162, DW_AT_high_pc(0x00)
    1235                            .dwattr $C$DW$162, DW_AT_TI_symbol_name("jdllcStateChangeCb")
    1236                            .dwattr $C$DW$162, DW_AT_TI_begin_file("../Application/sensor.c")
    1237                            .dwattr $C$DW$162, DW_AT_TI_begin_line(0x5a3)
    1238                            .dwattr $C$DW$162, DW_AT_TI_begin_column(0x0d)
    1239                            .dwattr $C$DW$162, DW_AT_decl_file("../Application/sensor.c")
    1240                            .dwattr $C$DW$162, DW_AT_decl_line(0x5a3)
    1241                            .dwattr $C$DW$162, DW_AT_decl_column(0x0d)
    1242                            .dwattr $C$DW$162, DW_AT_TI_max_frame_size(0x00)
    1243                            .dwpsn  file "../Application/sensor.c",line 1444,column 1,is_stmt,address jdllcStateChangeCb,i
    1244                    
    1245                            .dwfde $C$DW$CIE, jdllcStateChangeCb
    1246                    $C$DW$163       .dwtag  DW_TAG_formal_parameter
    1247                            .dwattr $C$DW$163, DW_AT_name("state")
    1248                            .dwattr $C$DW$163, DW_AT_TI_symbol_name("state")
    1249                            .dwattr $C$DW$163, DW_AT_type(*$C$DW$T$10)
    1250                            .dwattr $C$DW$163, DW_AT_location[DW_OP_reg0]
    1251                    
    1252                    
    1253                    ;*****************************************************************************
    1254                    ;* FUNCTION NAME: jdllcStateChangeCb                                         *
    1255                    ;*                                                                           *
    1256                    ;*   Regs Modified     : A1,A2,A3,A4,V9,LR,SR                                *
    1257                    ;*   Regs Used         : A1,A2,A3,A4,V9,SP,LR,SR                             *
    1258                    ;*   Local Frame Size  : 0 Args + 0 Auto + 0 Save = 0 byte                   *
    1259                    ;*****************************************************************************
    1260 00000000           jdllcStateChangeCb:
    1261                    ;* --------------------------------------------------------------------------*
    1262                            .dwcfi  cfa_offset, 0
    1263                            .dwpsn  file "../Application/sensor.c",line 1463,column 5,is_stmt,isa 1
    1264                    $C$DW$164       .dwtag  DW_TAG_TI_branch
    1265                            .dwattr $C$DW$164, DW_AT_low_pc(0x00)
TI ARM Assembler PC v18.1.4 Wed Dec 12 18:32:41 2018

Tools Copyright (c) 1996-2018 Texas Instruments Incorporated
C:\Users\DAMIAN\AppData\Local\Temp\{7491C7A3-CB92-4437-A790-AF4273D670A8} PAGE   24

    1266                            .dwattr $C$DW$164, DW_AT_name("Ssf_stateChangeUpdate")
    1267                            .dwattr $C$DW$164, DW_AT_TI_call
    1268                            .dwattr $C$DW$164, DW_AT_TI_return
    1269                    
    1270 00000000 BFFEF7FF!         CRET      Ssf_stateChangeUpdate ; [DPU_V7M3_PIPE] |1463|  ; [KEEP 32-BIT INS]
    1271                            ; CALL OCCURS {Ssf_stateChangeUpdate }  ; [] |1463| 
    1272                            .dwattr $C$DW$162, DW_AT_TI_end_file("../Application/sensor.c")
    1273                            .dwattr $C$DW$162, DW_AT_TI_end_line(0x5b8)
    1274                            .dwattr $C$DW$162, DW_AT_TI_end_column(0x01)
    1275                            .dwendentry
    1276                            .dwendtag $C$DW$162
    1277                    
    1278 00000000                   .sect   ".text:jdllcDisassocCnfCb"
    1279                            .clink
    1280                            .thumbfunc jdllcDisassocCnfCb
    1281 00000000                   .thumb
    1282                    
    1283                    $C$DW$165       .dwtag  DW_TAG_subprogram
    1284                            .dwattr $C$DW$165, DW_AT_name("jdllcDisassocCnfCb")
    1285                            .dwattr $C$DW$165, DW_AT_low_pc(jdllcDisassocCnfCb)
    1286                            .dwattr $C$DW$165, DW_AT_high_pc(0x00)
    1287                            .dwattr $C$DW$165, DW_AT_TI_symbol_name("jdllcDisassocCnfCb")
    1288                            .dwattr $C$DW$165, DW_AT_TI_begin_file("../Application/sensor.c")
    1289                            .dwattr $C$DW$165, DW_AT_TI_begin_line(0x591)
    1290                            .dwattr $C$DW$165, DW_AT_TI_begin_column(0x0d)
    1291                            .dwattr $C$DW$165, DW_AT_decl_file("../Application/sensor.c")
    1292                            .dwattr $C$DW$165, DW_AT_decl_line(0x591)
    1293                            .dwattr $C$DW$165, DW_AT_decl_column(0x0d)
    1294                            .dwattr $C$DW$165, DW_AT_TI_max_frame_size(0x08)
    1295                            .dwpsn  file "../Application/sensor.c",line 1427,column 1,is_stmt,address jdllcDisassocCnfCb,i
    1296                    
    1297                            .dwfde $C$DW$CIE, jdllcDisassocCnfCb
    1298                    $C$DW$166       .dwtag  DW_TAG_formal_parameter
    1299                            .dwattr $C$DW$166, DW_AT_name("pExtAddress")
    1300                            .dwattr $C$DW$166, DW_AT_TI_symbol_name("pExtAddress")
    1301                            .dwattr $C$DW$166, DW_AT_type(*$C$DW$T$220)
    1302                            .dwattr $C$DW$166, DW_AT_location[DW_OP_reg0]
    1303                    
    1304                    $C$DW$167       .dwtag  DW_TAG_formal_parameter
    1305                            .dwattr $C$DW$167, DW_AT_name("status")
    1306                            .dwattr $C$DW$167, DW_AT_TI_symbol_name("status")
    1307                            .dwattr $C$DW$167, DW_AT_type(*$C$DW$T$10)
    1308                            .dwattr $C$DW$167, DW_AT_location[DW_OP_reg1]
    1309                    
    1310                    
    1311                    ;*****************************************************************************
    1312                    ;* FUNCTION NAME: jdllcDisassocCnfCb                                         *
    1313                    ;*                                                                           *
    1314                    ;*   Regs Modified     : A1,A2,A3,A4,V9,SP,LR,SR                             *
    1315                    ;*   Regs Used         : A1,A2,A3,A4,V9,SP,LR,SR                             *
    1316                    ;*   Local Frame Size  : 0 Args + 0 Auto + 4 Save = 4 byte                   *
    1317                    ;*****************************************************************************
    1318 00000000           jdllcDisassocCnfCb:
    1319                    ;* --------------------------------------------------------------------------*
    1320                            .dwcfi  cfa_offset, 0
TI ARM Assembler PC v18.1.4 Wed Dec 12 18:32:41 2018

Tools Copyright (c) 1996-2018 Texas Instruments Incorporated
C:\Users\DAMIAN\AppData\Local\Temp\{7491C7A3-CB92-4437-A790-AF4273D670A8} PAGE   25

    1321 00000000 B508              PUSH      {A4, LR}              ; [DPU_V7M3_PIPE]  ; [ORIG 16-BIT INS]
    1322                            .dwcfi  cfa_offset, 8
    1323                            .dwcfi  save_reg_to_mem, 14, -4
    1324                            .dwcfi  save_reg_to_mem, 3, -8
    1325                            .dwpsn  file "../Application/sensor.c",line 1429,column 5,is_stmt,isa 1
    1326 00000002 2000              MOVS      A1, #0                ; [DPU_V7M3_PIPE] |1429|  ; [ORIG 16-BIT INS]
    1327                    $C$DW$168       .dwtag  DW_TAG_TI_branch
    1328                            .dwattr $C$DW$168, DW_AT_low_pc(0x00)
    1329                            .dwattr $C$DW$168, DW_AT_name("Ssf_setReadingClock")
    1330                            .dwattr $C$DW$168, DW_AT_TI_call
    1331                    
    1332 00000004 FFFEF7FF!         BL        Ssf_setReadingClock   ; [DPU_V7M3_PIPE] |1429|  ; [KEEP 32-BIT INS]
    1333                            ; CALL OCCURS {Ssf_setReadingClock }  ; [] |1429| 
    1334                            .dwpsn  file "../Application/sensor.c",line 1430,column 5,is_stmt,isa 1
    1335                    $C$DW$169       .dwtag  DW_TAG_TI_branch
    1336                            .dwattr $C$DW$169, DW_AT_low_pc(0x00)
    1337                            .dwattr $C$DW$169, DW_AT_name("Ssf_clearNetworkInfo")
    1338                            .dwattr $C$DW$169, DW_AT_TI_call
    1339                    
    1340 00000008 FFFEF7FF!         BL        Ssf_clearNetworkInfo  ; [DPU_V7M3_PIPE] |1430|  ; [KEEP 32-BIT INS]
    1341                            ; CALL OCCURS {Ssf_clearNetworkInfo }  ; [] |1430| 
    1342                    $C$DW$170       .dwtag  DW_TAG_TI_branch
    1343                            .dwattr $C$DW$170, DW_AT_low_pc(0x00)
    1344                            .dwattr $C$DW$170, DW_AT_TI_return
    1345                    
    1346 0000000c BD08              POP       {A4, PC}              ; [DPU_V7M3_PIPE]  ; [ORIG 16-BIT INS]
    1347                            .dwcfi  cfa_offset, 0
    1348                            .dwcfi  restore_reg, 3
    1349                            ; BRANCH OCCURS                  ; [] 
    1350                            .dwattr $C$DW$165, DW_AT_TI_end_file("../Application/sensor.c")
    1351                            .dwattr $C$DW$165, DW_AT_TI_end_line(0x59c)
    1352                            .dwattr $C$DW$165, DW_AT_TI_end_column(0x01)
    1353                            .dwendentry
    1354                            .dwendtag $C$DW$165
    1355                    
    1356 00000000                   .sect   ".text:jdllcDisassocIndCb"
    1357                            .clink
    1358                            .thumbfunc jdllcDisassocIndCb
    1359 00000000                   .thumb
    1360                    
    1361                    $C$DW$171       .dwtag  DW_TAG_subprogram
    1362                            .dwattr $C$DW$171, DW_AT_name("jdllcDisassocIndCb")
    1363                            .dwattr $C$DW$171, DW_AT_low_pc(jdllcDisassocIndCb)
    1364                            .dwattr $C$DW$171, DW_AT_high_pc(0x00)
    1365                            .dwattr $C$DW$171, DW_AT_TI_symbol_name("jdllcDisassocIndCb")
    1366                            .dwattr $C$DW$171, DW_AT_TI_begin_file("../Application/sensor.c")
    1367                            .dwattr $C$DW$171, DW_AT_TI_begin_line(0x57d)
    1368                            .dwattr $C$DW$171, DW_AT_TI_begin_column(0x0d)
    1369                            .dwattr $C$DW$171, DW_AT_decl_file("../Application/sensor.c")
    1370                            .dwattr $C$DW$171, DW_AT_decl_line(0x57d)
    1371                            .dwattr $C$DW$171, DW_AT_decl_column(0x0d)
    1372                            .dwattr $C$DW$171, DW_AT_TI_max_frame_size(0x08)
    1373                            .dwpsn  file "../Application/sensor.c",line 1407,column 1,is_stmt,address jdllcDisassocIndCb,i
    1374                    
    1375                            .dwfde $C$DW$CIE, jdllcDisassocIndCb
TI ARM Assembler PC v18.1.4 Wed Dec 12 18:32:41 2018

Tools Copyright (c) 1996-2018 Texas Instruments Incorporated
C:\Users\DAMIAN\AppData\Local\Temp\{7491C7A3-CB92-4437-A790-AF4273D670A8} PAGE   26

    1376                    $C$DW$172       .dwtag  DW_TAG_formal_parameter
    1377                            .dwattr $C$DW$172, DW_AT_name("pExtAddress")
    1378                            .dwattr $C$DW$172, DW_AT_TI_symbol_name("pExtAddress")
    1379                            .dwattr $C$DW$172, DW_AT_type(*$C$DW$T$220)
    1380                            .dwattr $C$DW$172, DW_AT_location[DW_OP_reg0]
    1381                    
    1382                    $C$DW$173       .dwtag  DW_TAG_formal_parameter
    1383                            .dwattr $C$DW$173, DW_AT_name("reason")
    1384                            .dwattr $C$DW$173, DW_AT_TI_symbol_name("reason")
    1385                            .dwattr $C$DW$173, DW_AT_type(*$C$DW$T$10)
    1386                            .dwattr $C$DW$173, DW_AT_location[DW_OP_reg1]
    1387                    
    1388                    
    1389                    ;*****************************************************************************
    1390                    ;* FUNCTION NAME: jdllcDisassocIndCb                                         *
    1391                    ;*                                                                           *
    1392                    ;*   Regs Modified     : A1,A2,A3,A4,V9,SP,LR,SR                             *
    1393                    ;*   Regs Used         : A1,A2,A3,A4,V9,SP,LR,SR                             *
    1394                    ;*   Local Frame Size  : 0 Args + 0 Auto + 4 Save = 4 byte                   *
    1395                    ;*****************************************************************************
    1396 00000000           jdllcDisassocIndCb:
    1397                    ;* --------------------------------------------------------------------------*
    1398                            .dwcfi  cfa_offset, 0
    1399 00000000 B508              PUSH      {A4, LR}              ; [DPU_V7M3_PIPE]  ; [ORIG 16-BIT INS]
    1400                            .dwcfi  cfa_offset, 8
    1401                            .dwcfi  save_reg_to_mem, 14, -4
    1402                            .dwcfi  save_reg_to_mem, 3, -8
    1403                            .dwpsn  file "../Application/sensor.c",line 1409,column 5,is_stmt,isa 1
    1404 00000002 2000              MOVS      A1, #0                ; [DPU_V7M3_PIPE] |1409|  ; [ORIG 16-BIT INS]
    1405                    $C$DW$174       .dwtag  DW_TAG_TI_branch
    1406                            .dwattr $C$DW$174, DW_AT_low_pc(0x00)
    1407                            .dwattr $C$DW$174, DW_AT_name("Ssf_setReadingClock")
    1408                            .dwattr $C$DW$174, DW_AT_TI_call
    1409                    
    1410 00000004 FFFEF7FF!         BL        Ssf_setReadingClock   ; [DPU_V7M3_PIPE] |1409|  ; [KEEP 32-BIT INS]
    1411                            ; CALL OCCURS {Ssf_setReadingClock }  ; [] |1409| 
    1412                            .dwpsn  file "../Application/sensor.c",line 1410,column 5,is_stmt,isa 1
    1413                    $C$DW$175       .dwtag  DW_TAG_TI_branch
    1414                            .dwattr $C$DW$175, DW_AT_low_pc(0x00)
    1415                            .dwattr $C$DW$175, DW_AT_name("Ssf_clearNetworkInfo")
    1416                            .dwattr $C$DW$175, DW_AT_TI_call
    1417                    
    1418 00000008 FFFEF7FF!         BL        Ssf_clearNetworkInfo  ; [DPU_V7M3_PIPE] |1410|  ; [KEEP 32-BIT INS]
    1419                            ; CALL OCCURS {Ssf_clearNetworkInfo }  ; [] |1410| 
    1420                    $C$DW$176       .dwtag  DW_TAG_TI_branch
    1421                            .dwattr $C$DW$176, DW_AT_low_pc(0x00)
    1422                            .dwattr $C$DW$176, DW_AT_TI_return
    1423                    
    1424 0000000c BD08              POP       {A4, PC}              ; [DPU_V7M3_PIPE]  ; [ORIG 16-BIT INS]
    1425                            .dwcfi  cfa_offset, 0
    1426                            .dwcfi  restore_reg, 3
    1427                            ; BRANCH OCCURS                  ; [] 
    1428                            .dwattr $C$DW$171, DW_AT_TI_end_file("../Application/sensor.c")
    1429                            .dwattr $C$DW$171, DW_AT_TI_end_line(0x588)
    1430                            .dwattr $C$DW$171, DW_AT_TI_end_column(0x01)
TI ARM Assembler PC v18.1.4 Wed Dec 12 18:32:41 2018

Tools Copyright (c) 1996-2018 Texas Instruments Incorporated
C:\Users\DAMIAN\AppData\Local\Temp\{7491C7A3-CB92-4437-A790-AF4273D670A8} PAGE   27

    1431                            .dwendentry
    1432                            .dwendtag $C$DW$171
    1433                    
    1434 00000000                   .sect   ".text:Sensor_sendMsg"
    1435                            .clink
    1436                            .thumbfunc Sensor_sendMsg
    1437 00000000                   .thumb
    1438                            .global Sensor_sendMsg
    1439                    
    1440                    $C$DW$177       .dwtag  DW_TAG_subprogram
    1441                            .dwattr $C$DW$177, DW_AT_name("Sensor_sendMsg")
    1442                            .dwattr $C$DW$177, DW_AT_low_pc(Sensor_sendMsg)
    1443                            .dwattr $C$DW$177, DW_AT_high_pc(0x00)
    1444                            .dwattr $C$DW$177, DW_AT_TI_symbol_name("Sensor_sendMsg")
    1445                            .dwattr $C$DW$177, DW_AT_external
    1446                            .dwattr $C$DW$177, DW_AT_type(*$C$DW$T$31)
    1447                            .dwattr $C$DW$177, DW_AT_TI_begin_file("../Application/sensor.c")
    1448                            .dwattr $C$DW$177, DW_AT_TI_begin_line(0x1f8)
    1449                            .dwattr $C$DW$177, DW_AT_TI_begin_column(0x06)
    1450                            .dwattr $C$DW$177, DW_AT_decl_file("../Application/sensor.c")
    1451                            .dwattr $C$DW$177, DW_AT_decl_line(0x1f8)
    1452                            .dwattr $C$DW$177, DW_AT_decl_column(0x06)
    1453                            .dwattr $C$DW$177, DW_AT_TI_max_frame_size(0x60)
    1454                            .dwpsn  file "../Application/sensor.c",line 506,column 1,is_stmt,address Sensor_sendMsg,isa 1
    1455                    
    1456                            .dwfde $C$DW$CIE, Sensor_sendMsg
    1457                    $C$DW$178       .dwtag  DW_TAG_formal_parameter
    1458                            .dwattr $C$DW$178, DW_AT_name("type")
    1459                            .dwattr $C$DW$178, DW_AT_TI_symbol_name("type")
    1460                            .dwattr $C$DW$178, DW_AT_type(*$C$DW$T$10)
    1461                            .dwattr $C$DW$178, DW_AT_location[DW_OP_reg0]
    1462                    
    1463                    $C$DW$179       .dwtag  DW_TAG_formal_parameter
    1464                            .dwattr $C$DW$179, DW_AT_name("pDstAddr")
    1465                            .dwattr $C$DW$179, DW_AT_TI_symbol_name("pDstAddr")
    1466                            .dwattr $C$DW$179, DW_AT_type(*$C$DW$T$589)
    1467                            .dwattr $C$DW$179, DW_AT_location[DW_OP_reg1]
    1468                    
    1469                    $C$DW$180       .dwtag  DW_TAG_formal_parameter
    1470                            .dwattr $C$DW$180, DW_AT_name("rxOnIdle")
    1471                            .dwattr $C$DW$180, DW_AT_TI_symbol_name("rxOnIdle")
    1472                            .dwattr $C$DW$180, DW_AT_type(*$C$DW$T$10)
    1473                            .dwattr $C$DW$180, DW_AT_location[DW_OP_reg2]
    1474                    
    1475                    $C$DW$181       .dwtag  DW_TAG_formal_parameter
    1476                            .dwattr $C$DW$181, DW_AT_name("len")
    1477                            .dwattr $C$DW$181, DW_AT_TI_symbol_name("len")
    1478                            .dwattr $C$DW$181, DW_AT_type(*$C$DW$T$10)
    1479                            .dwattr $C$DW$181, DW_AT_location[DW_OP_reg3]
    1480                    
    1481                    $C$DW$182       .dwtag  DW_TAG_formal_parameter
    1482                            .dwattr $C$DW$182, DW_AT_name("pData")
    1483                            .dwattr $C$DW$182, DW_AT_TI_symbol_name("pData")
    1484                            .dwattr $C$DW$182, DW_AT_type(*$C$DW$T$54)
    1485                            .dwattr $C$DW$182, DW_AT_location[DW_OP_breg13 96]
TI ARM Assembler PC v18.1.4 Wed Dec 12 18:32:41 2018

Tools Copyright (c) 1996-2018 Texas Instruments Incorporated
C:\Users\DAMIAN\AppData\Local\Temp\{7491C7A3-CB92-4437-A790-AF4273D670A8} PAGE   28

    1486                    
    1487                    
    1488                    ;*****************************************************************************
    1489                    ;* FUNCTION NAME: Sensor_sendMsg                                             *
    1490                    ;*                                                                           *
    1491                    ;*   Regs Modified     : A1,A2,A3,A4,V1,V2,V3,V4,V5,V6,V7,V9,SP,LR,SR        *
    1492                    ;*   Regs Used         : A1,A2,A3,A4,V1,V2,V3,V4,V5,V6,V7,V9,SP,LR,SR        *
    1493                    ;*   Local Frame Size  : 0 Args + 60 Auto + 32 Save = 92 byte                *
    1494                    ;*****************************************************************************
    1495                    Sensor_sendMsg:
    1496                    ;* --------------------------------------------------------------------------*
    1497                    $C$DW$183       .dwtag  DW_TAG_variable
    1498                            .dwattr $C$DW$183, DW_AT_name("dataReq")
    1499                            .dwattr $C$DW$183, DW_AT_TI_symbol_name("dataReq")
    1500                            .dwattr $C$DW$183, DW_AT_type(*$C$DW$T$517)
    1501                            .dwattr $C$DW$183, DW_AT_location[DW_OP_breg13 0]
    1502                    
    1503                    ;* V2    assigned to $O$K7
    1504                    ;* V1    assigned to $O$K64
    1505                    ;* A1    assigned to $O$v3
    1506                    ;* V5    assigned to type
    1507                    $C$DW$184       .dwtag  DW_TAG_variable
    1508                            .dwattr $C$DW$184, DW_AT_name("type")
    1509                            .dwattr $C$DW$184, DW_AT_TI_symbol_name("type")
    1510                            .dwattr $C$DW$184, DW_AT_type(*$C$DW$T$546)
    1511                            .dwattr $C$DW$184, DW_AT_location[DW_OP_reg8]
    1512                    
    1513                    ;* V1    assigned to pDstAddr
    1514                    $C$DW$185       .dwtag  DW_TAG_variable
    1515                            .dwattr $C$DW$185, DW_AT_name("pDstAddr")
    1516                            .dwattr $C$DW$185, DW_AT_TI_symbol_name("pDstAddr")
    1517                            .dwattr $C$DW$185, DW_AT_type(*$C$DW$T$590)
    1518                            .dwattr $C$DW$185, DW_AT_location[DW_OP_reg4]
    1519                    
    1520                    ;* V7    assigned to rxOnIdle
    1521                    $C$DW$186       .dwtag  DW_TAG_variable
    1522                            .dwattr $C$DW$186, DW_AT_name("rxOnIdle")
    1523                            .dwattr $C$DW$186, DW_AT_TI_symbol_name("rxOnIdle")
    1524                            .dwattr $C$DW$186, DW_AT_type(*$C$DW$T$879)
    1525                            .dwattr $C$DW$186, DW_AT_location[DW_OP_reg10]
    1526                    
    1527                    ;* V6    assigned to len
    1528                    $C$DW$187       .dwtag  DW_TAG_variable
    1529                            .dwattr $C$DW$187, DW_AT_name("len")
    1530                            .dwattr $C$DW$187, DW_AT_TI_symbol_name("len")
    1531                            .dwattr $C$DW$187, DW_AT_type(*$C$DW$T$778)
    1532                            .dwattr $C$DW$187, DW_AT_location[DW_OP_reg9]
    1533                    
    1534                    ;* V4    assigned to ret
    1535                    $C$DW$188       .dwtag  DW_TAG_variable
    1536                            .dwattr $C$DW$188, DW_AT_name("ret")
    1537                            .dwattr $C$DW$188, DW_AT_TI_symbol_name("ret")
    1538                            .dwattr $C$DW$188, DW_AT_type(*$C$DW$T$10)
    1539                            .dwattr $C$DW$188, DW_AT_location[DW_OP_reg7]
    1540                    
TI ARM Assembler PC v18.1.4 Wed Dec 12 18:32:41 2018

Tools Copyright (c) 1996-2018 Texas Instruments Incorporated
C:\Users\DAMIAN\AppData\Local\Temp\{7491C7A3-CB92-4437-A790-AF4273D670A8} PAGE   29

    1541                    ;* A2    assigned to msduHandle
    1542                    $C$DW$189       .dwtag  DW_TAG_variable
    1543                            .dwattr $C$DW$189, DW_AT_name("msduHandle")
    1544                            .dwattr $C$DW$189, DW_AT_TI_symbol_name("msduHandle")
    1545                            .dwattr $C$DW$189, DW_AT_type(*$C$DW$T$10)
    1546                            .dwattr $C$DW$189, DW_AT_location[DW_OP_reg1]
    1547                    
    1548                            .dwcfi  cfa_offset, 0
    1549 00000000 47F0E92D          PUSH      {V1, V2, V3, V4, V5, V6, V7, LR} ; [DPU_V7M3_PIPE]  ; [KEEP 32-BIT INS]
    1550                            .dwcfi  cfa_offset, 32
    1551                            .dwcfi  save_reg_to_mem, 14, -4
    1552                            .dwcfi  save_reg_to_mem, 10, -8
    1553                            .dwcfi  save_reg_to_mem, 9, -12
    1554                            .dwcfi  save_reg_to_mem, 8, -16
    1555                            .dwcfi  save_reg_to_mem, 7, -20
    1556                            .dwcfi  save_reg_to_mem, 6, -24
    1557                            .dwcfi  save_reg_to_mem, 5, -28
    1558                            .dwcfi  save_reg_to_mem, 4, -32
    1559 00000004 4699              MOV       V6, A4                ; [DPU_V7M3_PIPE] |506|  ; [ORIG 16-BIT INS]
    1560 00000006 4692              MOV       V7, A3                ; [DPU_V7M3_PIPE] |506|  ; [ORIG 16-BIT INS]
    1561 00000008 460C              MOV       V1, A2                ; [DPU_V7M3_PIPE] |506|  ; [ORIG 16-BIT INS]
    1562 0000000a 4680              MOV       V5, A1                ; [DPU_V7M3_PIPE] |506|  ; [ORIG 16-BIT INS]
    1563 0000000c 0D40F1AD          SUB       SP, SP, #64           ; [DPU_V7M3_PIPE]  ; [KEEP 32-BIT INS]
    1564                            .dwcfi  cfa_offset, 96
    1565                            .dwpsn  file "../Application/sensor.c",line 511,column 5,is_stmt,isa 1
    1566                    $C$DW$190       .dwtag  DW_TAG_TI_branch
    1567                            .dwattr $C$DW$190, DW_AT_low_pc(0x00)
    1568                            .dwattr $C$DW$190, DW_AT_name("ICall_getTicks")
    1569                            .dwattr $C$DW$190, DW_AT_TI_call
    1570                    
    1571 00000010 FFFEF7FF!         BL        ICall_getTicks        ; [DPU_V7M3_PIPE] |511|  ; [KEEP 32-BIT INS]
    1572                            ; CALL OCCURS {ICall_getTicks }  ; [] |511| 
    1573 00000014 4D42              LDR       V2, $C$CON2           ; [DPU_V7M3_PIPE] |511|  ; [ORIG 16-BIT INS]
    1574                            .dwpsn  file "../Application/sensor.c",line 514,column 5,is_stmt,isa 1
    1575 00000016 223C              MOVS      A3, #60               ; [DPU_V7M3_PIPE] |514|  ; [ORIG 16-BIT INS]
    1576 00000018 0114F105          ADD       A2, V2, #20           ; [DPU_V7M3_PIPE]  ; [KEEP 32-BIT INS]
    1577                            .dwpsn  file "../Application/sensor.c",line 511,column 5,is_stmt,isa 1
    1578 0000001c 6008              STR       A1, [A2, #0]          ; [DPU_V7M3_PIPE] |511|  ; [ORIG 16-BIT INS]
    1579                            .dwpsn  file "../Application/sensor.c",line 514,column 5,is_stmt,isa 1
    1580 0000001e 2100              MOVS      A2, #0                ; [DPU_V7M3_PIPE] |514|  ; [ORIG 16-BIT INS]
    1581 00000020 4668              MOV       A1, SP                ; [DPU_V7M3_PIPE] |514|  ; [ORIG 16-BIT INS]
    1582                    $C$DW$191       .dwtag  DW_TAG_TI_branch
    1583                            .dwattr $C$DW$191, DW_AT_low_pc(0x00)
    1584                            .dwattr $C$DW$191, DW_AT_name("memset")
    1585                            .dwattr $C$DW$191, DW_AT_TI_call
    1586                    
    1587 00000022 FFFEF7FF!         BL        memset                ; [DPU_V7M3_PIPE] |514|  ; [KEEP 32-BIT INS]
    1588                            ; CALL OCCURS {memset }          ; [] |514| 
    1589                            .dwpsn  file "../Application/sensor.c",line 516,column 5,is_stmt,isa 1
    1590 00000026 6820              LDR       A1, [V1, #0]          ; [DPU_V7M3_PIPE] |516|  ; [ORIG 16-BIT INS]
    1591 00000028 466E              MOV       V3, SP                ; [DPU_V7M3_PIPE] |516|  ; [ORIG 16-BIT INS]
    1592 0000002a 6030              STR       A1, [V3, #0]          ; [DPU_V7M3_PIPE] |516|  ; [ORIG 16-BIT INS]
    1593 0000002c 6860              LDR       A1, [V1, #4]          ; [DPU_V7M3_PIPE] |516|  ; [ORIG 16-BIT INS]
    1594 0000002e 6070              STR       A1, [V3, #4]          ; [DPU_V7M3_PIPE] |516|  ; [ORIG 16-BIT INS]
    1595 00000030 8920              LDRH      A1, [V1, #8]          ; [DPU_V7M3_PIPE] |516|  ; [ORIG 16-BIT INS]
TI ARM Assembler PC v18.1.4 Wed Dec 12 18:32:41 2018

Tools Copyright (c) 1996-2018 Texas Instruments Incorporated
C:\Users\DAMIAN\AppData\Local\Temp\{7491C7A3-CB92-4437-A790-AF4273D670A8} PAGE   30

    1596 00000032 8130              STRH      A1, [V3, #8]          ; [DPU_V7M3_PIPE] |516|  ; [ORIG 16-BIT INS]
    1597                            .dwpsn  file "../Application/sensor.c",line 518,column 5,is_stmt,isa 1
    1598 00000034 7A20              LDRB      A1, [V1, #8]          ; [DPU_V7M3_PIPE] |518|  ; [ORIG 16-BIT INS]
    1599 00000036 2803              CMP       A1, #3                ; [DPU_V7M3_PIPE] |518|  ; [ORIG 16-BIT INS]
    1600 00000038 BF14              ITE       NE                    ; [DPU_V7M3_PIPE]  ; [ORIG 16-BIT INS]
    1601                            .dwpsn  file "../Application/sensor.c",line 524,column 9,is_stmt,isa 1
    1602 0000003a 2002              MOVNE     A1, #2                ; [DPU_V7M3_PIPE] |524|  ; [ORIG 16-BIT INS]
    1603                            .dwpsn  file "../Application/sensor.c",line 520,column 9,is_stmt,isa 1
    1604 0000003c 2003              MOVEQ     A1, #3                ; [DPU_V7M3_PIPE] |520|  ; [ORIG 16-BIT INS]
    1605 0000003e 000CF88D          STRB      A1, [SP, #12]         ; [DPU_V7M3_PIPE] |520|  ; [KEEP 32-BIT INS]
    1606                            .dwpsn  file "../Application/sensor.c",line 527,column 5,is_stmt,isa 1
    1607 00000042 7828              LDRB      A1, [V2, #0]          ; [DPU_V7M3_PIPE] |527|  ; [ORIG 16-BIT INS]
    1608 00000044 B120              CBZ       A1, ||$C$L1||         ; []  ; [ORIG 16-BIT INS]
    1609                            ; BRANCHCC OCCURS {||$C$L1||}    ; [] |527| 
    1610                    ;* --------------------------------------------------------------------------*
    1611 00000046 0138F105          ADD       A2, V2, #56           ; [DPU_V7M3_PIPE]  ; [KEEP 32-BIT INS]
    1612                            .dwpsn  file "../Application/sensor.c",line 529,column 9,is_stmt,isa 1
    1613 0000004a 2050              MOVS      A1, #80               ; [DPU_V7M3_PIPE] |529|  ; [ORIG 16-BIT INS]
    1614                    $C$DW$192       .dwtag  DW_TAG_TI_branch
    1615                            .dwattr $C$DW$192, DW_AT_low_pc(0x00)
    1616                            .dwattr $C$DW$192, DW_AT_name("ApiMac_mlmeGetReqUint16")
    1617                            .dwattr $C$DW$192, DW_AT_TI_call
    1618                    
    1619 0000004c FFFEF7FF!         BL        ApiMac_mlmeGetReqUint16 ; [DPU_V7M3_PIPE] |529|  ; [KEEP 32-BIT INS]
    1620                            ; CALL OCCURS {ApiMac_mlmeGetReqUint16 }  ; [] |529| 
    1621                    ;* --------------------------------------------------------------------------*
    1622 00000050           ||$C$L1||:    
    1623                            .dwpsn  file "../Application/sensor.c",line 533,column 5,is_stmt,isa 1
    1624 00000050 8F28              LDRH      A1, [V2, #56]         ; [DPU_V7M3_PIPE] |533|  ; [ORIG 16-BIT INS]
    1625                            .dwpsn  file "../Application/sensor.c",line 802,column 24,is_stmt,isa 1
    1626 00000052 7869              LDRB      A2, [V2, #1]          ; [DPU_V7M3_PIPE] |802|  ; [ORIG 16-BIT INS]
    1627                            .dwpsn  file "../Application/sensor.c",line 533,column 5,is_stmt,isa 1
    1628 00000054 000AF8AD          STRH      A1, [SP, #10]         ; [DPU_V7M3_PIPE] |533|  ; [KEEP 32-BIT INS]
    1629                            .dwpsn  file "../Application/sensor.c",line 802,column 24,is_stmt,isa 1
    1630 00000058 291F              CMP       A2, #31               ; [DPU_V7M3_PIPE] |802|  ; [ORIG 16-BIT INS]
    1631 0000005a BFB4              ITE       LT                    ; [DPU_V7M3_PIPE]  ; [ORIG 16-BIT INS]
    1632                            .dwpsn  file "../Application/sensor.c",line 811,column 9,is_stmt,isa 1
    1633 0000005c 1C48              ADDLT     A1, A2, #1            ; [DPU_V7M3_PIPE] |811|  ; [ORIG 16-BIT INS]
    1634                            .dwpsn  file "../Application/sensor.c",line 807,column 9,is_stmt,isa 1
    1635 0000005e 2000              MOVGE     A1, #0                ; [DPU_V7M3_PIPE] |807|  ; [ORIG 16-BIT INS]
    1636                            .dwpsn  file "../Application/sensor.c",line 507,column 14,is_stmt,isa 1
    1637 00000060 2700              MOVS      V4, #0                ; [DPU_V7M3_PIPE] |507|  ; [ORIG 16-BIT INS]
    1638                            .dwpsn  file "../Application/sensor.c",line 818,column 5,is_stmt,isa 1
    1639 00000062 0F05F1B8          CMP       V5, #5                ; [DPU_V7M3_PIPE] |818|  ; [KEEP 32-BIT INS]
    1640                            .dwpsn  file "../Application/sensor.c",line 815,column 5,is_stmt,isa 1
    1641 00000066 0180F041          ORR       A2, A2, #128          ; [DPU_V7M3_PIPE] |815|  ; [KEEP 32-BIT INS]
    1642                            .dwpsn  file "../Application/sensor.c",line 807,column 9,is_stmt,isa 1
    1643 0000006a 7068              STRB      A1, [V2, #1]          ; [DPU_V7M3_PIPE] |807|  ; [ORIG 16-BIT INS]
    1644                            .dwpsn  file "../Application/sensor.c",line 818,column 5,is_stmt,isa 1
    1645 0000006c D00E              BEQ       ||$C$L3||             ; [DPU_V7M3_PIPE] |818|  ; [ORIG 16-BIT INS]
    1646                            ; BRANCHCC OCCURS {||$C$L3||}    ; [] |818| 
    1647                    ;* --------------------------------------------------------------------------*
    1648 0000006e 0F08F1B8          CMP       V5, #8                ; [DPU_V7M3_PIPE] |818|  ; [KEEP 32-BIT INS]
    1649 00000072 D00B              BEQ       ||$C$L3||             ; [DPU_V7M3_PIPE] |818|  ; [ORIG 16-BIT INS]
    1650                            ; BRANCHCC OCCURS {||$C$L3||}    ; [] |818| 
TI ARM Assembler PC v18.1.4 Wed Dec 12 18:32:41 2018

Tools Copyright (c) 1996-2018 Texas Instruments Incorporated
C:\Users\DAMIAN\AppData\Local\Temp\{7491C7A3-CB92-4437-A790-AF4273D670A8} PAGE   31

    1651                    ;* --------------------------------------------------------------------------*
    1652                            .dwpsn  file "../Application/sensor.c",line 822,column 10,is_stmt,isa 1
    1653 00000074 0F04F1B8          CMP       V5, #4                ; [DPU_V7M3_PIPE] |822|  ; [KEEP 32-BIT INS]
    1654 00000078 D005              BEQ       ||$C$L2||             ; [DPU_V7M3_PIPE] |822|  ; [ORIG 16-BIT INS]
    1655                            ; BRANCHCC OCCURS {||$C$L2||}    ; [] |822| 
    1656                    ;* --------------------------------------------------------------------------*
    1657                            .dwpsn  file "../Application/sensor.c",line 826,column 10,is_stmt,isa 1
    1658 0000007a 0F02F1B8          CMP       V5, #2                ; [DPU_V7M3_PIPE] |826|  ; [KEEP 32-BIT INS]
    1659 0000007e BF08              IT        EQ                    ; [DPU_V7M3_PIPE]  ; [ORIG 16-BIT INS]
    1660                            .dwpsn  file "../Application/sensor.c",line 828,column 9,is_stmt,isa 1
    1661 00000080 0160F041          ORREQ     A2, A2, #96           ; [DPU_V7M3_PIPE] |828|  ; [KEEP 32-BIT INS]
    1662 00000084 E004              B         ||$C$L4||             ; [DPU_V7M3_PIPE] |828|  ; [ORIG 16-BIT INS]
    1663                            ; BRANCH OCCURS {||$C$L4||}      ; [] |828| 
    1664                    ;* --------------------------------------------------------------------------*
    1665 00000086           ||$C$L2||:    
    1666                            .dwpsn  file "../Application/sensor.c",line 824,column 9,is_stmt,isa 1
    1667 00000086 0120F041          ORR       A2, A2, #32           ; [DPU_V7M3_PIPE] |824|  ; [KEEP 32-BIT INS]
    1668                            .dwpsn  file "../Application/sensor.c",line 825,column 5,is_stmt,isa 1
    1669 0000008a E001              B         ||$C$L4||             ; [DPU_V7M3_PIPE] |825|  ; [ORIG 16-BIT INS]
    1670                            ; BRANCH OCCURS {||$C$L4||}      ; [] |825| 
    1671                    ;* --------------------------------------------------------------------------*
    1672 0000008c           ||$C$L3||:    
    1673                            .dwpsn  file "../Application/sensor.c",line 820,column 9,is_stmt,isa 1
    1674 0000008c 0140F041          ORR       A2, A2, #64           ; [DPU_V7M3_PIPE] |820|  ; [KEEP 32-BIT INS]
    1675                    ;* --------------------------------------------------------------------------*
    1676 00000090           ||$C$L4||:    
    1677                            .dwpsn  file "../Application/sensor.c",line 537,column 5,is_stmt,isa 1
    1678 00000090 2401              MOVS      V1, #1                ; [DPU_V7M3_PIPE] |537|  ; [ORIG 16-BIT INS]
    1679                            .dwpsn  file "../Application/sensor.c",line 535,column 5,is_stmt,isa 1
    1680 00000092 100DF88D          STRB      A2, [SP, #13]         ; [DPU_V7M3_PIPE] |535|  ; [KEEP 32-BIT INS]
    1681                            .dwpsn  file "../Application/sensor.c",line 544,column 5,is_stmt,isa 1
    1682 00000096 0F01F1BA          CMP       V7, #1                ; [DPU_V7M3_PIPE] |544|  ; [KEEP 32-BIT INS]
    1683                            .dwpsn  file "../Application/sensor.c",line 537,column 5,is_stmt,isa 1
    1684 0000009a 400EF88D          STRB      V1, [SP, #14]         ; [DPU_V7M3_PIPE] |537|  ; [KEEP 32-BIT INS]
    1685 0000009e BF18              IT        NE                    ; [DPU_V7M3_PIPE]  ; [ORIG 16-BIT INS]
    1686                            .dwpsn  file "../Application/sensor.c",line 546,column 9,is_stmt,isa 1
    1687 000000a0 400FF88D          STRBNE    V1, [SP, #15]         ; [DPU_V7M3_PIPE] |546|  ; [KEEP 32-BIT INS]
    1688                            .dwpsn  file "../Application/sensor.c",line 549,column 5,is_stmt,isa 1
    1689 000000a4 9028F8AD          STRH      V6, [SP, #40]         ; [DPU_V7M3_PIPE] |549|  ; [KEEP 32-BIT INS]
    1690                            .dwpsn  file "../Application/sensor.c",line 550,column 5,is_stmt,isa 1
    1691 000000a8 9818              LDR       A1, [SP, #96]         ; [DPU_V7M3_PIPE] |550|  ; [ORIG 16-BIT INS]
    1692 000000aa 9009              STR       A1, [SP, #36]         ; [DPU_V7M3_PIPE] |550|  ; [ORIG 16-BIT INS]
    1693                            .dwpsn  file "../Application/sensor.c",line 553,column 5,is_stmt,isa 1
    1694 000000ac A80B              ADD       A1, SP, #44           ; [DPU_V7M3_PIPE] |553|  ; [ORIG 16-BIT INS]
    1695                    $C$DW$193       .dwtag  DW_TAG_TI_branch
    1696                            .dwattr $C$DW$193, DW_AT_low_pc(0x00)
    1697                            .dwattr $C$DW$193, DW_AT_name("Jdllc_securityFill")
    1698                            .dwattr $C$DW$193, DW_AT_TI_call
    1699                    
    1700 000000ae FFFEF7FF!         BL        Jdllc_securityFill    ; [DPU_V7M3_PIPE] |553|  ; [KEEP 32-BIT INS]
    1701                            ; CALL OCCURS {Jdllc_securityFill }  ; [] |553| 
    1702                            .dwpsn  file "../Application/sensor.c",line 556,column 5,is_stmt,isa 1
    1703 000000b2 0F05F1B8          CMP       V5, #5                ; [DPU_V7M3_PIPE] |556|  ; [KEEP 32-BIT INS]
    1704 000000b6 D015              BEQ       ||$C$L6||             ; [DPU_V7M3_PIPE] |556|  ; [ORIG 16-BIT INS]
    1705                            ; BRANCHCC OCCURS {||$C$L6||}    ; [] |556| 
TI ARM Assembler PC v18.1.4 Wed Dec 12 18:32:41 2018

Tools Copyright (c) 1996-2018 Texas Instruments Incorporated
C:\Users\DAMIAN\AppData\Local\Temp\{7491C7A3-CB92-4437-A790-AF4273D670A8} PAGE   32

    1706                    ;* --------------------------------------------------------------------------*
    1707 000000b8 0F08F1B8          CMP       V5, #8                ; [DPU_V7M3_PIPE] |556|  ; [KEEP 32-BIT INS]
    1708 000000bc D012              BEQ       ||$C$L6||             ; [DPU_V7M3_PIPE] |556|  ; [ORIG 16-BIT INS]
    1709                            ; BRANCHCC OCCURS {||$C$L6||}    ; [] |556| 
    1710                    ;* --------------------------------------------------------------------------*
    1711                            .dwpsn  file "../Application/sensor.c",line 560,column 10,is_stmt,isa 1
    1712 000000be 0062F8B5          LDRH      A1, [V2, #98]         ; [DPU_V7M3_PIPE] |560|  ; [KEEP 32-BIT INS]
    1713 000000c2 0F04F1B8          CMP       V5, #4                ; [DPU_V7M3_PIPE] |560|  ; [KEEP 32-BIT INS]
    1714 000000c6 D008              BEQ       ||$C$L5||             ; [DPU_V7M3_PIPE] |560|  ; [ORIG 16-BIT INS]
    1715                            ; BRANCHCC OCCURS {||$C$L5||}    ; [] |560| 
    1716                    ;* --------------------------------------------------------------------------*
    1717                            .dwpsn  file "../Application/sensor.c",line 564,column 10,is_stmt,isa 1
    1718 000000c8 0F02F1B8          CMP       V5, #2                ; [DPU_V7M3_PIPE] |564|  ; [KEEP 32-BIT INS]
    1719 000000cc D10F              BNE       ||$C$L7||             ; [DPU_V7M3_PIPE] |564|  ; [ORIG 16-BIT INS]
    1720                            ; BRANCHCC OCCURS {||$C$L7||}    ; [] |564| 
    1721                    ;* --------------------------------------------------------------------------*
    1722                            .dwpsn  file "../Application/sensor.c",line 566,column 9,is_stmt,isa 1
    1723 000000ce 0068F8B5          LDRH      A1, [V2, #104]        ; [DPU_V7M3_PIPE] |566|  ; [KEEP 32-BIT INS]
    1724 000000d2 1C40              ADDS      A1, A1, #1            ; [DPU_V7M3_PIPE] |566|  ; [ORIG 16-BIT INS]
    1725 000000d4 0068F8A5          STRH      A1, [V2, #104]        ; [DPU_V7M3_PIPE] |566|  ; [KEEP 32-BIT INS]
    1726 000000d8 E009              B         ||$C$L7||             ; [DPU_V7M3_PIPE] |566|  ; [ORIG 16-BIT INS]
    1727                            ; BRANCH OCCURS {||$C$L7||}      ; [] |566| 
    1728                    ;* --------------------------------------------------------------------------*
    1729 000000da           ||$C$L5||:    
    1730                            .dwpsn  file "../Application/sensor.c",line 562,column 9,is_stmt,isa 1
    1731 000000da 1C40              ADDS      A1, A1, #1            ; [DPU_V7M3_PIPE] |562|  ; [ORIG 16-BIT INS]
    1732 000000dc B280              UXTH      A1, A1                ; [DPU_V7M3_PIPE] |562|  ; [ORIG 16-BIT INS]
    1733 000000de 0062F8A5          STRH      A1, [V2, #98]         ; [DPU_V7M3_PIPE] |562|  ; [KEEP 32-BIT INS]
    1734                            .dwpsn  file "../Application/sensor.c",line 563,column 5,is_stmt,isa 1
    1735 000000e2 E004              B         ||$C$L7||             ; [DPU_V7M3_PIPE] |563|  ; [ORIG 16-BIT INS]
    1736                            ; BRANCH OCCURS {||$C$L7||}      ; [] |563| 
    1737                    ;* --------------------------------------------------------------------------*
    1738 000000e4           ||$C$L6||:    
    1739                            .dwpsn  file "../Application/sensor.c",line 558,column 9,is_stmt,isa 1
    1740 000000e4 005CF8B5          LDRH      A1, [V2, #92]         ; [DPU_V7M3_PIPE] |558|  ; [KEEP 32-BIT INS]
    1741 000000e8 1C40              ADDS      A1, A1, #1            ; [DPU_V7M3_PIPE] |558|  ; [ORIG 16-BIT INS]
    1742 000000ea 005CF8A5          STRH      A1, [V2, #92]         ; [DPU_V7M3_PIPE] |558|  ; [KEEP 32-BIT INS]
    1743                    ;* --------------------------------------------------------------------------*
    1744 000000ee           ||$C$L7||:    
    1745 000000ee 4668              MOV       A1, SP                ; [DPU_V7M3_PIPE]  ; [ORIG 16-BIT INS]
    1746                            .dwpsn  file "../Application/sensor.c",line 570,column 5,is_stmt,isa 1
    1747                    $C$DW$194       .dwtag  DW_TAG_TI_branch
    1748                            .dwattr $C$DW$194, DW_AT_low_pc(0x00)
    1749                            .dwattr $C$DW$194, DW_AT_name("ApiMac_mcpsDataReq")
    1750                            .dwattr $C$DW$194, DW_AT_TI_call
    1751                    
    1752 000000f0 FFFEF7FF!         BL        ApiMac_mcpsDataReq    ; [DPU_V7M3_PIPE] |570|  ; [KEEP 32-BIT INS]
    1753                            ; CALL OCCURS {ApiMac_mcpsDataReq }  ; [] |570| 
    1754 000000f4 B170              CBZ       A1, ||$C$L8||         ; []  ; [ORIG 16-BIT INS]
    1755                            ; BRANCHCC OCCURS {||$C$L8||}    ; [] |570| 
    1756                    ;* --------------------------------------------------------------------------*
    1757                            .dwpsn  file "../Application/sensor.c",line 577,column 9,is_stmt,isa 1
    1758 000000f6 0F05F1B8          CMP       V5, #5                ; [DPU_V7M3_PIPE] |577|  ; [KEEP 32-BIT INS]
    1759 000000fa BF18              IT        NE                    ; [DPU_V7M3_PIPE]  ; [ORIG 16-BIT INS]
    1760 000000fc 0F08F1B8          CMPNE     V5, #8                ; [DPU_V7M3_PIPE] |577|  ; [KEEP 32-BIT INS]
TI ARM Assembler PC v18.1.4 Wed Dec 12 18:32:41 2018

Tools Copyright (c) 1996-2018 Texas Instruments Incorporated
C:\Users\DAMIAN\AppData\Local\Temp\{7491C7A3-CB92-4437-A790-AF4273D670A8} PAGE   33

    1761 00000100 D109              BNE       ||$C$L9||             ; [DPU_V7M3_PIPE] |577|  ; [ORIG 16-BIT INS]
    1762                            ; BRANCHCC OCCURS {||$C$L9||}    ; [] |577| 
    1763                    ;* --------------------------------------------------------------------------*
    1764                            .dwpsn  file "../Application/sensor.c",line 579,column 13,is_stmt,isa 1
    1765 00000102 6B28              LDR       A1, [V2, #48]         ; [DPU_V7M3_PIPE] |579|  ; [ORIG 16-BIT INS]
    1766                    $C$DW$195       .dwtag  DW_TAG_TI_branch
    1767                            .dwattr $C$DW$195, DW_AT_low_pc(0x00)
    1768                            .dwattr $C$DW$195, DW_AT_name("Ssf_setReadingClock")
    1769                            .dwattr $C$DW$195, DW_AT_TI_call
    1770                    
    1771 00000104 FFFEF7FF!         BL        Ssf_setReadingClock   ; [DPU_V7M3_PIPE] |579|  ; [KEEP 32-BIT INS]
    1772                            ; CALL OCCURS {Ssf_setReadingClock }  ; [] |579| 
    1773                            .dwpsn  file "../Application/sensor.c",line 580,column 13,is_stmt,isa 1
    1774 00000108 005CF8B5          LDRH      A1, [V2, #92]         ; [DPU_V7M3_PIPE] |580|  ; [KEEP 32-BIT INS]
    1775 0000010c 1C40              ADDS      A1, A1, #1            ; [DPU_V7M3_PIPE] |580|  ; [ORIG 16-BIT INS]
    1776 0000010e 005CF8A5          STRH      A1, [V2, #92]         ; [DPU_V7M3_PIPE] |580|  ; [KEEP 32-BIT INS]
    1777 00000112 E000              B         ||$C$L9||             ; [DPU_V7M3_PIPE] |580|  ; [ORIG 16-BIT INS]
    1778                            ; BRANCH OCCURS {||$C$L9||}      ; [] |580| 
    1779                    ;* --------------------------------------------------------------------------*
    1780 00000114           ||$C$L8||:    
    1781 00000114 4627              MOV       V4, V1                ; [DPU_V7M3_PIPE]  ; [ORIG 16-BIT INS]
    1782                    ;* --------------------------------------------------------------------------*
    1783 00000116           ||$C$L9||:    
    1784                            .dwpsn  file "../Application/sensor.c",line 584,column 5,is_stmt,isa 1
    1785 00000116 4638              MOV       A1, V4                ; [DPU_V7M3_PIPE] |584|  ; [ORIG 16-BIT INS]
    1786 00000118 B010              ADD       SP, SP, #64           ; [DPU_V7M3_PIPE]  ; [ORIG 16-BIT INS]
    1787                            .dwcfi  cfa_offset, 32
    1788                    $C$DW$196       .dwtag  DW_TAG_TI_branch
    1789                            .dwattr $C$DW$196, DW_AT_low_pc(0x00)
    1790                            .dwattr $C$DW$196, DW_AT_TI_return
    1791                    
    1792 0000011a 87F0E8BD          POP       {V1, V2, V3, V4, V5, V6, V7, PC} ; [DPU_V7M3_PIPE]  ; [KEEP 32-BIT INS]
    1793                            .dwcfi  cfa_offset, 0
    1794                            .dwcfi  restore_reg, 10
    1795                            .dwcfi  restore_reg, 9
    1796                            .dwcfi  restore_reg, 8
    1797                            .dwcfi  restore_reg, 7
    1798                            .dwcfi  restore_reg, 6
    1799                            .dwcfi  restore_reg, 5
    1800                            .dwcfi  restore_reg, 4
    1801                            ; BRANCH OCCURS                  ; [] 
    1802                            .dwattr $C$DW$177, DW_AT_TI_end_file("../Application/sensor.c")
    1803                            .dwattr $C$DW$177, DW_AT_TI_end_line(0x249)
    1804                            .dwattr $C$DW$177, DW_AT_TI_end_column(0x01)
    1805                            .dwendentry
    1806                            .dwendtag $C$DW$177
    1807                    
    1808 00000000                   .sect   ".text:dataIndCB"
    1809                            .clink
    1810                            .thumbfunc dataIndCB
    1811 00000000                   .thumb
    1812                    
    1813                    $C$DW$197       .dwtag  DW_TAG_subprogram
    1814                            .dwattr $C$DW$197, DW_AT_name("dataIndCB")
    1815                            .dwattr $C$DW$197, DW_AT_low_pc(dataIndCB)
TI ARM Assembler PC v18.1.4 Wed Dec 12 18:32:41 2018

Tools Copyright (c) 1996-2018 Texas Instruments Incorporated
C:\Users\DAMIAN\AppData\Local\Temp\{7491C7A3-CB92-4437-A790-AF4273D670A8} PAGE   34

    1816                            .dwattr $C$DW$197, DW_AT_high_pc(0x00)
    1817                            .dwattr $C$DW$197, DW_AT_TI_symbol_name("dataIndCB")
    1818                            .dwattr $C$DW$197, DW_AT_TI_begin_file("../Application/sensor.c")
    1819                            .dwattr $C$DW$197, DW_AT_TI_begin_line(0x2bd)
    1820                            .dwattr $C$DW$197, DW_AT_TI_begin_column(0x0d)
    1821                            .dwattr $C$DW$197, DW_AT_decl_file("../Application/sensor.c")
    1822                            .dwattr $C$DW$197, DW_AT_decl_line(0x2bd)
    1823                            .dwattr $C$DW$197, DW_AT_decl_column(0x0d)
    1824                            .dwattr $C$DW$197, DW_AT_TI_max_frame_size(0x40)
    1825                            .dwpsn  file "../Application/sensor.c",line 702,column 1,is_stmt,address dataIndCB,isa 1
    1826                    
    1827                            .dwfde $C$DW$CIE, dataIndCB
    1828                    $C$DW$198       .dwtag  DW_TAG_formal_parameter
    1829                            .dwattr $C$DW$198, DW_AT_name("pDataInd")
    1830                            .dwattr $C$DW$198, DW_AT_TI_symbol_name("pDataInd")
    1831                            .dwattr $C$DW$198, DW_AT_type(*$C$DW$T$331)
    1832                            .dwattr $C$DW$198, DW_AT_location[DW_OP_reg0]
    1833                    
    1834                    
    1835                    ;*****************************************************************************
    1836                    ;* FUNCTION NAME: dataIndCB                                                  *
    1837                    ;*                                                                           *
    1838                    ;*   Regs Modified     : A1,A2,A3,A4,V1,V2,V3,V4,V5,V6,V9,SP,LR,SR           *
    1839                    ;*   Regs Used         : A1,A2,A3,A4,V1,V2,V3,V4,V5,V6,V9,SP,LR,SR           *
    1840                    ;*   Local Frame Size  : 4 Args + 32 Auto + 28 Save = 64 byte                *
    1841                    ;*****************************************************************************
    1842                    dataIndCB:
    1843                    ;* --------------------------------------------------------------------------*
    1844                    $C$DW$199       .dwtag  DW_TAG_variable
    1845                            .dwattr $C$DW$199, DW_AT_name("cmdBytes")
    1846                            .dwattr $C$DW$199, DW_AT_TI_symbol_name("cmdBytes")
    1847                            .dwattr $C$DW$199, DW_AT_type(*$C$DW$T$759)
    1848                            .dwattr $C$DW$199, DW_AT_location[DW_OP_breg13 32]
    1849                    
    1850                    ;* V2    assigned to $O$C2
    1851                    ;* V3    assigned to $O$C3
    1852                    ;* V5    assigned to $O$C4
    1853                    ;* A4    assigned to $O$C5
    1854                    ;* V1    assigned to $O$C6
    1855                    ;* A2    assigned to $O$C7
    1856                    ;* A1    assigned to $O$Y0
    1857                    ;* V1    assigned to $O$K37
    1858                    ;* V1    assigned to $O$K37
    1859                    ;* A3    assigned to $O$K42
    1860                    ;* A1    assigned to $O$v1
    1861                    ;* V4    assigned to pDataInd
    1862                    $C$DW$200       .dwtag  DW_TAG_variable
    1863                            .dwattr $C$DW$200, DW_AT_name("pDataInd")
    1864                            .dwattr $C$DW$200, DW_AT_TI_symbol_name("pDataInd")
    1865                            .dwattr $C$DW$200, DW_AT_type(*$C$DW$T$893)
    1866                            .dwattr $C$DW$200, DW_AT_location[DW_OP_reg7]
    1867                    
    1868                    ;* V3    assigned to cmdId
    1869                    $C$DW$201       .dwtag  DW_TAG_variable
    1870                            .dwattr $C$DW$201, DW_AT_name("cmdId")
TI ARM Assembler PC v18.1.4 Wed Dec 12 18:32:41 2018

Tools Copyright (c) 1996-2018 Texas Instruments Incorporated
C:\Users\DAMIAN\AppData\Local\Temp\{7491C7A3-CB92-4437-A790-AF4273D670A8} PAGE   35

    1871                            .dwattr $C$DW$201, DW_AT_TI_symbol_name("cmdId")
    1872                            .dwattr $C$DW$201, DW_AT_type(*$C$DW$T$10)
    1873                            .dwattr $C$DW$201, DW_AT_location[DW_OP_reg6]
    1874                    
    1875                    ;* A1    assigned to broadcastMsgId
    1876                    $C$DW$202       .dwtag  DW_TAG_variable
    1877                            .dwattr $C$DW$202, DW_AT_name("broadcastMsgId")
    1878                            .dwattr $C$DW$202, DW_AT_TI_symbol_name("broadcastMsgId")
    1879                            .dwattr $C$DW$202, DW_AT_type(*$C$DW$T$10)
    1880                            .dwattr $C$DW$202, DW_AT_location[DW_OP_reg0]
    1881                    
    1882                    ;* V2    assigned to stat
    1883                    $C$DW$203       .dwtag  DW_TAG_variable
    1884                            .dwattr $C$DW$203, DW_AT_name("stat")
    1885                            .dwattr $C$DW$203, DW_AT_TI_symbol_name("stat")
    1886                            .dwattr $C$DW$203, DW_AT_type(*$C$DW$T$10)
    1887                            .dwattr $C$DW$203, DW_AT_location[DW_OP_reg5]
    1888                    
    1889                    ;* A1    assigned to pBuf
    1890                    $C$DW$204       .dwtag  DW_TAG_variable
    1891                            .dwattr $C$DW$204, DW_AT_name("pBuf")
    1892                            .dwattr $C$DW$204, DW_AT_TI_symbol_name("pBuf")
    1893                            .dwattr $C$DW$204, DW_AT_type(*$C$DW$T$54)
    1894                            .dwattr $C$DW$204, DW_AT_location[DW_OP_reg0]
    1895                    
    1896                    ;* V2    assigned to frameControl
    1897                    $C$DW$205       .dwtag  DW_TAG_variable
    1898                            .dwattr $C$DW$205, DW_AT_name("frameControl")
    1899                            .dwattr $C$DW$205, DW_AT_TI_symbol_name("frameControl")
    1900                            .dwattr $C$DW$205, DW_AT_type(*$C$DW$T$10)
    1901                            .dwattr $C$DW$205, DW_AT_location[DW_OP_reg5]
    1902                    
    1903                    ;* V3    assigned to reportingInterval
    1904                    $C$DW$206       .dwtag  DW_TAG_variable
    1905                            .dwattr $C$DW$206, DW_AT_name("reportingInterval")
    1906                            .dwattr $C$DW$206, DW_AT_TI_symbol_name("reportingInterval")
    1907                            .dwattr $C$DW$206, DW_AT_type(*$C$DW$T$36)
    1908                            .dwattr $C$DW$206, DW_AT_location[DW_OP_reg6]
    1909                    
    1910                    ;* V6    assigned to pollingInterval
    1911                    $C$DW$207       .dwtag  DW_TAG_variable
    1912                            .dwattr $C$DW$207, DW_AT_name("pollingInterval")
    1913                            .dwattr $C$DW$207, DW_AT_TI_symbol_name("pollingInterval")
    1914                            .dwattr $C$DW$207, DW_AT_type(*$C$DW$T$36)
    1915                            .dwattr $C$DW$207, DW_AT_location[DW_OP_reg9]
    1916                    
    1917                    ;* A1    assigned to randomNum
    1918                    $C$DW$208       .dwtag  DW_TAG_variable
    1919                            .dwattr $C$DW$208, DW_AT_name("randomNum")
    1920                            .dwattr $C$DW$208, DW_AT_TI_symbol_name("randomNum")
    1921                            .dwattr $C$DW$208, DW_AT_type(*$C$DW$T$36)
    1922                            .dwattr $C$DW$208, DW_AT_location[DW_OP_reg0]
    1923                    
    1924                    ;* V2    assigned to frameControl
    1925                    $C$DW$209       .dwtag  DW_TAG_variable
TI ARM Assembler PC v18.1.4 Wed Dec 12 18:32:41 2018

Tools Copyright (c) 1996-2018 Texas Instruments Incorporated
C:\Users\DAMIAN\AppData\Local\Temp\{7491C7A3-CB92-4437-A790-AF4273D670A8} PAGE   36

    1926                            .dwattr $C$DW$209, DW_AT_name("frameControl")
    1927                            .dwattr $C$DW$209, DW_AT_TI_symbol_name("frameControl")
    1928                            .dwattr $C$DW$209, DW_AT_type(*$C$DW$T$10)
    1929                            .dwattr $C$DW$209, DW_AT_location[DW_OP_reg5]
    1930                    
    1931                    ;* A1    assigned to newFrameControl
    1932                    $C$DW$210       .dwtag  DW_TAG_variable
    1933                            .dwattr $C$DW$210, DW_AT_name("newFrameControl")
    1934                            .dwattr $C$DW$210, DW_AT_TI_symbol_name("newFrameControl")
    1935                            .dwattr $C$DW$210, DW_AT_type(*$C$DW$T$10)
    1936                            .dwattr $C$DW$210, DW_AT_location[DW_OP_reg0]
    1937                    
    1938                            .dwcfi  cfa_offset, 0
    1939 00000000 43F0E92D          PUSH      {V1, V2, V3, V4, V5, V6, LR} ; [DPU_V7M3_PIPE]  ; [KEEP 32-BIT INS]
    1940                            .dwcfi  cfa_offset, 28
    1941                            .dwcfi  save_reg_to_mem, 14, -4
    1942                            .dwcfi  save_reg_to_mem, 9, -8
    1943                            .dwcfi  save_reg_to_mem, 8, -12
    1944                            .dwcfi  save_reg_to_mem, 7, -16
    1945                            .dwcfi  save_reg_to_mem, 6, -20
    1946                            .dwcfi  save_reg_to_mem, 5, -24
    1947                            .dwcfi  save_reg_to_mem, 4, -28
    1948                            .dwpsn  file "../Application/sensor.c",line 705,column 5,is_stmt,isa 1
    1949 00000004 1C07              MOVS      V4, A1                ; [DPU_V7M3_PIPE] |705|  ; [ORIG 16-BIT INS]
    1950 00000006 0D24F1AD          SUB       SP, SP, #36           ; [DPU_V7M3_PIPE]  ; [KEEP 32-BIT INS]
    1951                            .dwcfi  cfa_offset, 64
    1952 0000000a AFFEF43F!         BEQ       ||$C$L24||            ; [DPU_V7M3_PIPE] |705|  ; [KEEP 32-BIT INS]
    1953                            ; BRANCHCC OCCURS {||$C$L24||}   ; [] |705| 
    1954                    ;* --------------------------------------------------------------------------*
    1955 0000000e 6BF9              LDR       A2, [V4, #60]         ; [DPU_V7M3_PIPE] |705|  ; [ORIG 16-BIT INS]
    1956 00000010 2900              CMP       A2, #0                ; [DPU_V7M3_PIPE] |705|  ; [ORIG 16-BIT INS]
    1957 00000012 AFFEF43F!         BEQ       ||$C$L24||            ; [DPU_V7M3_PIPE] |705|  ; [KEEP 32-BIT INS]
    1958                            ; BRANCHCC OCCURS {||$C$L24||}   ; [] |705| 
    1959                    ;* --------------------------------------------------------------------------*
    1960 00000016 0040F8B7          LDRH      A1, [V4, #64]         ; [DPU_V7M3_PIPE] |705|  ; [KEEP 32-BIT INS]
    1961 0000001a 2800              CMP       A1, #0                ; [DPU_V7M3_PIPE] |705|  ; [ORIG 16-BIT INS]
    1962 0000001c AFFEF43F!         BEQ       ||$C$L24||            ; [DPU_V7M3_PIPE] |705|  ; [KEEP 32-BIT INS]
    1963                            ; BRANCHCC OCCURS {||$C$L24||}   ; [] |705| 
    1964                    ;* --------------------------------------------------------------------------*
    1965                            .dwpsn  file "../Application/sensor.c",line 708,column 30,is_stmt,isa 1
    1966 00000020 780E              LDRB      V3, [A2, #0]          ; [DPU_V7M3_PIPE] |708|  ; [ORIG 16-BIT INS]
    1967                            .dwpsn  file "../Application/sensor.c",line 712,column 13,is_stmt,isa 1
    1968 00000022 0030F107          ADD       A1, V4, #48           ; [DPU_V7M3_PIPE] |712|  ; [KEEP 32-BIT INS]
    1969                    $C$DW$211       .dwtag  DW_TAG_TI_branch
    1970                            .dwattr $C$DW$211, DW_AT_low_pc(0x00)
    1971                            .dwattr $C$DW$211, DW_AT_name("Jdllc_securityCheck")
    1972                            .dwattr $C$DW$211, DW_AT_TI_call
    1973                    
    1974 00000026 FFFEF7FF!         BL        Jdllc_securityCheck   ; [DPU_V7M3_PIPE] |712|  ; [KEEP 32-BIT INS]
    1975                            ; CALL OCCURS {Jdllc_securityCheck }  ; [] |712| 
    1976 0000002a 2800              CMP       A1, #0                ; [DPU_V7M3_PIPE] |712|  ; [ORIG 16-BIT INS]
    1977 0000002c AFFEF43F!         BEQ       ||$C$L24||            ; [DPU_V7M3_PIPE] |712|  ; [KEEP 32-BIT INS]
    1978                            ; BRANCHCC OCCURS {||$C$L24||}   ; [] |712| 
    1979                    ;* --------------------------------------------------------------------------*
    1980 00000030 8200F8DF          LDR       V5, $C$CON5           ; [DPU_V7M3_PIPE]  ; [KEEP 32-BIT INS]
TI ARM Assembler PC v18.1.4 Wed Dec 12 18:32:41 2018

Tools Copyright (c) 1996-2018 Texas Instruments Incorporated
C:\Users\DAMIAN\AppData\Local\Temp\{7491C7A3-CB92-4437-A790-AF4273D670A8} PAGE   37

    1981                            .dwpsn  file "../Application/sensor.c",line 720,column 9,is_stmt,isa 1
    1982 00000034 4630              MOV       A1, V3                ; [DPU_V7M3_PIPE] |720|  ; [ORIG 16-BIT INS]
    1983 00000036 1E40              SUBS      A1, A1, #1            ; [DPU_V7M3_PIPE] |720|  ; [ORIG 16-BIT INS]
    1984 00000038 D061              BEQ       ||$C$L15||            ; [DPU_V7M3_PIPE] |720|  ; [ORIG 16-BIT INS]
    1985                            ; BRANCHCC OCCURS {||$C$L15||}   ; [] |720| 
    1986                    ;* --------------------------------------------------------------------------*
    1987 0000003a 1E80              SUBS      A1, A1, #2            ; [DPU_V7M3_PIPE] |720|  ; [ORIG 16-BIT INS]
    1988 0000003c D046              BEQ       ||$C$L13||            ; [DPU_V7M3_PIPE] |720|  ; [ORIG 16-BIT INS]
    1989                            ; BRANCHCC OCCURS {||$C$L13||}   ; [] |720| 
    1990                    ;* --------------------------------------------------------------------------*
    1991 0000003e 1EC0              SUBS      A1, A1, #3            ; [DPU_V7M3_PIPE] |720|  ; [ORIG 16-BIT INS]
    1992 00000040 D034              BEQ       ||$C$L12||            ; [DPU_V7M3_PIPE] |720|  ; [ORIG 16-BIT INS]
    1993                            ; BRANCHCC OCCURS {||$C$L12||}   ; [] |720| 
    1994                    ;* --------------------------------------------------------------------------*
    1995 00000042 1F00              SUBS      A1, A1, #4            ; [DPU_V7M3_PIPE] |720|  ; [ORIG 16-BIT INS]
    1996 00000044 AFFEF47F!         BNE       ||$C$L24||            ; [DPU_V7M3_PIPE] |720|  ; [KEEP 32-BIT INS]
    1997                            ; BRANCHCC OCCURS {||$C$L24||}   ; [] |720| 
    1998                    ;* --------------------------------------------------------------------------*
    1999                            .dwpsn  file "../Application/sensor.c",line 761,column 17,is_stmt,isa 1
    2000 00000048 4879              LDR       A1, $C$CON4           ; [DPU_V7M3_PIPE] |761|  ; [ORIG 16-BIT INS]
    2001 0000004a 7800              LDRB      A1, [A1, #0]          ; [DPU_V7M3_PIPE] |761|  ; [ORIG 16-BIT INS]
    2002 0000004c 2800              CMP       A1, #0                ; [DPU_V7M3_PIPE] |761|  ; [ORIG 16-BIT INS]
    2003 0000004e AFFEF43F!         BEQ       ||$C$L24||            ; [DPU_V7M3_PIPE] |761|  ; [KEEP 32-BIT INS]
    2004                            ; BRANCHCC OCCURS {||$C$L24||}   ; [] |761| 
    2005                    ;* --------------------------------------------------------------------------*
    2006                            .dwpsn  file "../Application/sensor.c",line 1201,column 5,is_stmt,isa 1
    2007 00000052 A801              ADD       A1, SP, #4            ; [DPU_V7M3_PIPE] |1201|  ; [ORIG 16-BIT INS]
    2008 00000054 2100              MOVS      A2, #0                ; [DPU_V7M3_PIPE] |1201|  ; [ORIG 16-BIT INS]
    2009 00000056 2204              MOVS      A3, #4                ; [DPU_V7M3_PIPE] |1201|  ; [ORIG 16-BIT INS]
    2010                    $C$DW$212       .dwtag  DW_TAG_TI_branch
    2011                            .dwattr $C$DW$212, DW_AT_low_pc(0x00)
    2012                            .dwattr $C$DW$212, DW_AT_name("memset")
    2013                            .dwattr $C$DW$212, DW_AT_TI_call
    2014                    
    2015 00000058 FFFEF7FF!         BL        memset                ; [DPU_V7M3_PIPE] |1201|  ; [KEEP 32-BIT INS]
    2016                            ; CALL OCCURS {memset }          ; [] |1201| 
    2017                            .dwpsn  file "../Application/sensor.c",line 1204,column 5,is_stmt,isa 1
    2018 0000005c 0040F8B7          LDRH      A1, [V4, #64]         ; [DPU_V7M3_PIPE] |1204|  ; [KEEP 32-BIT INS]
    2019 00000060 2803              CMP       A1, #3                ; [DPU_V7M3_PIPE] |1204|  ; [ORIG 16-BIT INS]
    2020 00000062 AFFEF47F!         BNE       ||$C$L24||            ; [DPU_V7M3_PIPE] |1204|  ; [KEEP 32-BIT INS]
    2021                            ; BRANCHCC OCCURS {||$C$L24||}   ; [] |1204| 
    2022                    ;* --------------------------------------------------------------------------*
    2023                            .dwpsn  file "../Application/sensor.c",line 1211,column 9,is_stmt,isa 1
    2024 00000066 6BF8              LDR       A1, [V4, #60]         ; [DPU_V7M3_PIPE] |1211|  ; [ORIG 16-BIT INS]
    2025 00000068 1C40              ADDS      A1, A1, #1            ; [DPU_V7M3_PIPE] |1211|  ; [ORIG 16-BIT INS]
    2026                    $C$DW$213       .dwtag  DW_TAG_TI_branch
    2027                            .dwattr $C$DW$213, DW_AT_low_pc(0x00)
    2028                            .dwattr $C$DW$213, DW_AT_name("Util_parseUint16")
    2029                            .dwattr $C$DW$213, DW_AT_TI_call
    2030                    
    2031 0000006a FFFEF7FF!         BL        Util_parseUint16      ; [DPU_V7M3_PIPE] |1211|  ; [KEEP 32-BIT INS]
    2032                            ; CALL OCCURS {Util_parseUint16 }  ; [] |1211| 
    2033                            .dwpsn  file "../Application/sensor.c",line 1214,column 9,is_stmt,isa 1
    2034 0000006e 4644              MOV       V1, V5                ; [DPU_V7M3_PIPE] |1214|  ; [ORIG 16-BIT INS]
    2035 00000070 0280F104          ADD       A3, V1, #128          ; [DPU_V7M3_PIPE]  ; [KEEP 32-BIT INS]
TI ARM Assembler PC v18.1.4 Wed Dec 12 18:32:41 2018

Tools Copyright (c) 1996-2018 Texas Instruments Incorporated
C:\Users\DAMIAN\AppData\Local\Temp\{7491C7A3-CB92-4437-A790-AF4273D670A8} PAGE   38

    2036 00000074 8811              LDRH      A2, [A3, #0]          ; [DPU_V7M3_PIPE] |1214|  ; [ORIG 16-BIT INS]
    2037 00000076 1C49              ADDS      A2, A2, #1            ; [DPU_V7M3_PIPE] |1214|  ; [ORIG 16-BIT INS]
    2038 00000078 8011              STRH      A2, [A3, #0]          ; [DPU_V7M3_PIPE] |1214|  ; [ORIG 16-BIT INS]
    2039                            .dwpsn  file "../Application/sensor.c",line 1216,column 9,is_stmt,isa 1
    2040 0000007a 4A6F              LDR       A3, $C$CON6           ; [DPU_V7M3_PIPE] |1216|  ; [ORIG 16-BIT INS]
    2041 0000007c 7811              LDRB      A2, [A3, #0]          ; [DPU_V7M3_PIPE] |1216|  ; [ORIG 16-BIT INS]
    2042 0000007e 2901              CMP       A2, #1                ; [DPU_V7M3_PIPE] |1216|  ; [ORIG 16-BIT INS]
    2043 00000080 D009              BEQ       ||$C$L10||            ; [DPU_V7M3_PIPE] |1216|  ; [ORIG 16-BIT INS]
    2044                            ; BRANCHCC OCCURS {||$C$L10||}   ; [] |1216| 
    2045                    ;* --------------------------------------------------------------------------*
    2046                            .dwpsn  file "../Application/sensor.c",line 1219,column 13,is_stmt,isa 1
    2047 00000082 88E1              LDRH      A2, [V1, #6]          ; [DPU_V7M3_PIPE] |1219|  ; [ORIG 16-BIT INS]
    2048 00000084 1A43              SUBS      A4, A1, A2            ; [DPU_V7M3_PIPE] |1219|  ; [ORIG 16-BIT INS]
    2049 00000086 2B02              CMP       A4, #2                ; [DPU_V7M3_PIPE] |1219|  ; [ORIG 16-BIT INS]
    2050 00000088 DB05              BLT       ||$C$L10||            ; [DPU_V7M3_PIPE] |1219|  ; [ORIG 16-BIT INS]
    2051                            ; BRANCHCC OCCURS {||$C$L10||}   ; [] |1219| 
    2052                    ;* --------------------------------------------------------------------------*
    2053                            .dwpsn  file "../Application/sensor.c",line 1221,column 17,is_stmt,isa 1
    2054 0000008a 1082F8B4          LDRH      A2, [V1, #130]        ; [DPU_V7M3_PIPE] |1221|  ; [KEEP 32-BIT INS]
    2055 0000008e 18C9              ADDS      A2, A2, A4            ; [DPU_V7M3_PIPE] |1221|  ; [ORIG 16-BIT INS]
    2056 00000090 1E49              SUBS      A2, A2, #1            ; [DPU_V7M3_PIPE] |1221|  ; [ORIG 16-BIT INS]
    2057 00000092 1082F8A4          STRH      A2, [V1, #130]        ; [DPU_V7M3_PIPE] |1221|  ; [KEEP 32-BIT INS]
    2058                    ;* --------------------------------------------------------------------------*
    2059 00000096           ||$C$L10||:    
    2060                            .dwpsn  file "../Application/sensor.c",line 1226,column 9,is_stmt,isa 1
    2061 00000096 80E0              STRH      A1, [V1, #6]          ; [DPU_V7M3_PIPE] |1226|  ; [ORIG 16-BIT INS]
    2062                            .dwpsn  file "../Application/sensor.c",line 1228,column 9,is_stmt,isa 1
    2063 00000098 2100              MOVS      A2, #0                ; [DPU_V7M3_PIPE] |1228|  ; [ORIG 16-BIT INS]
    2064                            .dwpsn  file "../Application/sensor.c",line 1231,column 9,is_stmt,isa 1
    2065 0000009a 0840              LSRS      A1, A1, #1            ; [DPU_V7M3_PIPE] |1231|  ; [ORIG 16-BIT INS]
    2066                            .dwpsn  file "../Application/sensor.c",line 1228,column 9,is_stmt,isa 1
    2067 0000009c 7011              STRB      A2, [A3, #0]          ; [DPU_V7M3_PIPE] |1228|  ; [ORIG 16-BIT INS]
    2068                            .dwpsn  file "../Application/sensor.c",line 1231,column 9,is_stmt,isa 1
    2069 0000009e D202              BCS       ||$C$L11||            ; [DPU_V7M3_PIPE] |1231|  ; [ORIG 16-BIT INS]
    2070                            ; BRANCHCC OCCURS {||$C$L11||}   ; [] |1231| 
    2071                    ;* --------------------------------------------------------------------------*
    2072                            .dwpsn  file "../Application/sensor.c",line 1233,column 13,is_stmt,isa 1
    2073                    $C$DW$214       .dwtag  DW_TAG_TI_branch
    2074                            .dwattr $C$DW$214, DW_AT_low_pc(0x00)
    2075                            .dwattr $C$DW$214, DW_AT_name("Ssf_OnLED")
    2076                            .dwattr $C$DW$214, DW_AT_TI_call
    2077                    
    2078 000000a0 FFFEF7FF!         BL        Ssf_OnLED             ; [DPU_V7M3_PIPE] |1233|  ; [KEEP 32-BIT INS]
    2079                            ; CALL OCCURS {Ssf_OnLED }       ; [] |1233| 
    2080                            .dwpsn  file "../Application/sensor.c",line 1234,column 9,is_stmt,isa 1
    2081 000000a4 E0C0              B         ||$C$L24||            ; [DPU_V7M3_PIPE] |1234|  ; [ORIG 16-BIT INS]
    2082                            ; BRANCH OCCURS {||$C$L24||}     ; [] |1234| 
    2083                    ;* --------------------------------------------------------------------------*
    2084 000000a6           ||$C$L11||:    
    2085                            .dwpsn  file "../Application/sensor.c",line 1237,column 13,is_stmt,isa 1
    2086                    $C$DW$215       .dwtag  DW_TAG_TI_branch
    2087                            .dwattr $C$DW$215, DW_AT_low_pc(0x00)
    2088                            .dwattr $C$DW$215, DW_AT_name("Ssf_OffLED")
    2089                            .dwattr $C$DW$215, DW_AT_TI_call
    2090                    
TI ARM Assembler PC v18.1.4 Wed Dec 12 18:32:41 2018

Tools Copyright (c) 1996-2018 Texas Instruments Incorporated
C:\Users\DAMIAN\AppData\Local\Temp\{7491C7A3-CB92-4437-A790-AF4273D670A8} PAGE   39

    2091 000000a6 FFFEF7FF!         BL        Ssf_OffLED            ; [DPU_V7M3_PIPE] |1237|  ; [KEEP 32-BIT INS]
    2092                            ; CALL OCCURS {Ssf_OffLED }      ; [] |1237| 
    2093 000000aa E0BD              B         ||$C$L24||            ; [DPU_V7M3_PIPE] |1237|  ; [ORIG 16-BIT INS]
    2094                            ; BRANCH OCCURS {||$C$L24||}     ; [] |1237| 
    2095                    ;* --------------------------------------------------------------------------*
    2096 000000ac           ||$C$L12||:    
    2097                            .dwpsn  file "../Application/sensor.c",line 747,column 17,is_stmt,isa 1
    2098 000000ac 0040F8B7          LDRH      A1, [V4, #64]         ; [DPU_V7M3_PIPE] |747|  ; [KEEP 32-BIT INS]
    2099 000000b0 2801              CMP       A1, #1                ; [DPU_V7M3_PIPE] |747|  ; [ORIG 16-BIT INS]
    2100 000000b2 AFFEF47F!         BNE       ||$C$L24||            ; [DPU_V7M3_PIPE] |747|  ; [KEEP 32-BIT INS]
    2101                            ; BRANCHCC OCCURS {||$C$L24||}   ; [] |747| 
    2102                    ;* --------------------------------------------------------------------------*
    2103                            .dwpsn  file "../Application/sensor.c",line 751,column 21,is_stmt,isa 1
    2104 000000b6 2407              MOVS      V1, #7                ; [DPU_V7M3_PIPE] |751|  ; [ORIG 16-BIT INS]
    2105 000000b8 4020F88D          STRB      V1, [SP, #32]         ; [DPU_V7M3_PIPE] |751|  ; [KEEP 32-BIT INS]
    2106                            .dwpsn  file "../Application/sensor.c",line 752,column 21,is_stmt,isa 1
    2107                    $C$DW$216       .dwtag  DW_TAG_TI_branch
    2108                            .dwattr $C$DW$216, DW_AT_low_pc(0x00)
    2109                            .dwattr $C$DW$216, DW_AT_name("Ssf_toggleLED")
    2110                            .dwattr $C$DW$216, DW_AT_TI_call
    2111                    
    2112 000000bc FFFEF7FF!         BL        Ssf_toggleLED         ; [DPU_V7M3_PIPE] |752|  ; [KEEP 32-BIT INS]
    2113                            ; CALL OCCURS {Ssf_toggleLED }   ; [] |752| 
    2114 000000c0 0021F88D          STRB      A1, [SP, #33]         ; [DPU_V7M3_PIPE] |752|  ; [KEEP 32-BIT INS]
    2115                            .dwpsn  file "../Application/sensor.c",line 753,column 21,is_stmt,isa 1
    2116 000000c4 2201              MOVS      A3, #1                ; [DPU_V7M3_PIPE] |753|  ; [ORIG 16-BIT INS]
    2117 000000c6 2302              MOVS      A4, #2                ; [DPU_V7M3_PIPE] |753|  ; [ORIG 16-BIT INS]
    2118 000000c8 4620              MOV       A1, V1                ; [DPU_V7M3_PIPE] |753|  ; [ORIG 16-BIT INS]
    2119 000000ca E012              B         ||$C$L14||            ; [DPU_V7M3_PIPE] |753|  ; [ORIG 16-BIT INS]
    2120                            ; BRANCH OCCURS {||$C$L14||}     ; [] |753| 
    2121                    ;* --------------------------------------------------------------------------*
    2122 000000cc           ||$C$L13||:    
    2123                            .dwpsn  file "../Application/sensor.c",line 729,column 17,is_stmt,isa 1
    2124 000000cc 0040F8B7          LDRH      A1, [V4, #64]         ; [DPU_V7M3_PIPE] |729|  ; [KEEP 32-BIT INS]
    2125 000000d0 2801              CMP       A1, #1                ; [DPU_V7M3_PIPE] |729|  ; [ORIG 16-BIT INS]
    2126 000000d2 AFFEF47F!         BNE       ||$C$L24||            ; [DPU_V7M3_PIPE] |729|  ; [KEEP 32-BIT INS]
    2127                            ; BRANCHCC OCCURS {||$C$L24||}   ; [] |729| 
    2128                    ;* --------------------------------------------------------------------------*
    2129                            .dwpsn  file "../Application/sensor.c",line 732,column 21,is_stmt,isa 1
    2130 000000d6 4644              MOV       V1, V5                ; [DPU_V7M3_PIPE] |732|  ; [ORIG 16-BIT INS]
    2131 000000d8 0060F8B4          LDRH      A1, [V1, #96]         ; [DPU_V7M3_PIPE] |732|  ; [KEEP 32-BIT INS]
    2132 000000dc 1C40              ADDS      A1, A1, #1            ; [DPU_V7M3_PIPE] |732|  ; [ORIG 16-BIT INS]
    2133 000000de 0060F8A4          STRH      A1, [V1, #96]         ; [DPU_V7M3_PIPE] |732|  ; [KEEP 32-BIT INS]
    2134                            .dwpsn  file "../Application/sensor.c",line 735,column 21,is_stmt,isa 1
    2135 000000e2 4638              MOV       A1, V4                ; [DPU_V7M3_PIPE] |735|  ; [ORIG 16-BIT INS]
    2136                    $C$DW$217       .dwtag  DW_TAG_TI_branch
    2137                            .dwattr $C$DW$217, DW_AT_low_pc(0x00)
    2138                            .dwattr $C$DW$217, DW_AT_name("Ssf_trackingUpdate")
    2139                            .dwattr $C$DW$217, DW_AT_TI_call
    2140                    
    2141 000000e4 FFFEF7FF!         BL        Ssf_trackingUpdate    ; [DPU_V7M3_PIPE] |735|  ; [KEEP 32-BIT INS]
    2142                            ; CALL OCCURS {Ssf_trackingUpdate }  ; [] |735| 
    2143                            .dwpsn  file "../Application/sensor.c",line 738,column 21,is_stmt,isa 1
    2144 000000e8 2004              MOVS      A1, #4                ; [DPU_V7M3_PIPE] |738|  ; [ORIG 16-BIT INS]
    2145                            .dwpsn  file "../Application/sensor.c",line 739,column 21,is_stmt,isa 1
TI ARM Assembler PC v18.1.4 Wed Dec 12 18:32:41 2018

Tools Copyright (c) 1996-2018 Texas Instruments Incorporated
C:\Users\DAMIAN\AppData\Local\Temp\{7491C7A3-CB92-4437-A790-AF4273D670A8} PAGE   40

    2146 000000ea 2201              MOVS      A3, #1                ; [DPU_V7M3_PIPE] |739|  ; [ORIG 16-BIT INS]
    2147                            .dwpsn  file "../Application/sensor.c",line 738,column 21,is_stmt,isa 1
    2148 000000ec 0020F88D          STRB      A1, [SP, #32]         ; [DPU_V7M3_PIPE] |738|  ; [KEEP 32-BIT INS]
    2149                            .dwpsn  file "../Application/sensor.c",line 739,column 21,is_stmt,isa 1
    2150 000000f0 4613              MOV       A4, A3                ; [DPU_V7M3_PIPE] |739|  ; [ORIG 16-BIT INS]
    2151                    ;* --------------------------------------------------------------------------*
    2152 000000f2           ||$C$L14||:    
    2153 000000f2 A908              ADD       A2, SP, #32           ; [DPU_V7M3_PIPE] |739|  ; [ORIG 16-BIT INS]
    2154 000000f4 9100              STR       A2, [SP, #0]          ; [DPU_V7M3_PIPE] |739|  ; [ORIG 16-BIT INS]
    2155 000000f6 4639              MOV       A2, V4                ; [DPU_V7M3_PIPE] |739|  ; [ORIG 16-BIT INS]
    2156                    $C$DW$218       .dwtag  DW_TAG_TI_branch
    2157                            .dwattr $C$DW$218, DW_AT_low_pc(0x00)
    2158                            .dwattr $C$DW$218, DW_AT_name("Sensor_sendMsg")
    2159                            .dwattr $C$DW$218, DW_AT_TI_call
    2160                    
    2161 000000f8 FFFEF7FF!         BL        Sensor_sendMsg        ; [DPU_V7M3_PIPE] |739|  ; [KEEP 32-BIT INS]
    2162                            ; CALL OCCURS {Sensor_sendMsg }  ; [] |739| 
    2163 000000fc E094              B         ||$C$L24||            ; [DPU_V7M3_PIPE] |739|  ; [ORIG 16-BIT INS]
    2164                            ; BRANCH OCCURS {||$C$L24||}     ; [] |739| 
    2165                    ;* --------------------------------------------------------------------------*
    2166 000000fe           ||$C$L15||:    
    2167                            .dwpsn  file "../Application/sensor.c",line 1109,column 5,is_stmt,isa 1
    2168 000000fe A801              ADD       A1, SP, #4            ; [DPU_V7M3_PIPE] |1109|  ; [ORIG 16-BIT INS]
    2169 00000100 2100              MOVS      A2, #0                ; [DPU_V7M3_PIPE] |1109|  ; [ORIG 16-BIT INS]
    2170 00000102 220C              MOVS      A3, #12               ; [DPU_V7M3_PIPE] |1109|  ; [ORIG 16-BIT INS]
    2171                    $C$DW$219       .dwtag  DW_TAG_TI_branch
    2172                            .dwattr $C$DW$219, DW_AT_low_pc(0x00)
    2173                            .dwattr $C$DW$219, DW_AT_name("memset")
    2174                            .dwattr $C$DW$219, DW_AT_TI_call
    2175                    
    2176 00000104 FFFEF7FF!         BL        memset                ; [DPU_V7M3_PIPE] |1109|  ; [KEEP 32-BIT INS]
    2177                            ; CALL OCCURS {memset }          ; [] |1109| 
    2178                            .dwpsn  file "../Application/sensor.c",line 1112,column 5,is_stmt,isa 1
    2179 00000108 0040F8B7          LDRH      A1, [V4, #64]         ; [DPU_V7M3_PIPE] |1112|  ; [KEEP 32-BIT INS]
    2180 0000010c 280B              CMP       A1, #11               ; [DPU_V7M3_PIPE] |1112|  ; [ORIG 16-BIT INS]
    2181 0000010e D163              BNE       ||$C$L22||            ; [DPU_V7M3_PIPE] |1112|  ; [ORIG 16-BIT INS]
    2182                            ; BRANCHCC OCCURS {||$C$L22||}   ; [] |1112| 
    2183                    ;* --------------------------------------------------------------------------*
    2184                            .dwpsn  file "../Application/sensor.c",line 1114,column 23,is_stmt,isa 1
    2185 00000110 6BFC              LDR       V1, [V4, #60]         ; [DPU_V7M3_PIPE] |1114|  ; [ORIG 16-BIT INS]
    2186                            .dwpsn  file "../Application/sensor.c",line 1120,column 9,is_stmt,isa 1
    2187 00000112 0B01F814          LDRB      A1, [V1], #1          ; [DPU_V7M3_PIPE] |1120|  ; [KEEP 32-BIT INS]
    2188 00000116 002CF888          STRB      A1, [V5, #44]         ; [DPU_V7M3_PIPE] |1120|  ; [KEEP 32-BIT INS]
    2189                            .dwpsn  file "../Application/sensor.c",line 1121,column 9,is_stmt,isa 1
    2190 0000011a 4620              MOV       A1, V1                ; [DPU_V7M3_PIPE] |1121|  ; [ORIG 16-BIT INS]
    2191                    $C$DW$220       .dwtag  DW_TAG_TI_branch
    2192                            .dwattr $C$DW$220, DW_AT_low_pc(0x00)
    2193                            .dwattr $C$DW$220, DW_AT_name("Util_parseUint16")
    2194                            .dwattr $C$DW$220, DW_AT_TI_call
    2195                    
    2196 0000011c FFFEF7FF!         BL        Util_parseUint16      ; [DPU_V7M3_PIPE] |1121|  ; [KEEP 32-BIT INS]
    2197                            ; CALL OCCURS {Util_parseUint16 }  ; [] |1121| 
    2198                            .dwpsn  file "../Application/sensor.c",line 1123,column 9,is_stmt,isa 1
    2199 00000120 1CA4              ADDS      V1, V1, #2            ; [DPU_V7M3_PIPE] |1123|  ; [ORIG 16-BIT INS]
    2200                            .dwpsn  file "../Application/sensor.c",line 1121,column 9,is_stmt,isa 1
TI ARM Assembler PC v18.1.4 Wed Dec 12 18:32:41 2018

Tools Copyright (c) 1996-2018 Texas Instruments Incorporated
C:\Users\DAMIAN\AppData\Local\Temp\{7491C7A3-CB92-4437-A790-AF4273D670A8} PAGE   41

    2201 00000122 4605              MOV       V2, A1                ; [DPU_V7M3_PIPE] |1121|  ; [ORIG 16-BIT INS]
    2202                            .dwpsn  file "../Application/sensor.c",line 1123,column 9,is_stmt,isa 1
    2203 00000124 4620              MOV       A1, V1                ; [DPU_V7M3_PIPE] |1123|  ; [ORIG 16-BIT INS]
    2204                    $C$DW$221       .dwtag  DW_TAG_TI_branch
    2205                            .dwattr $C$DW$221, DW_AT_low_pc(0x00)
    2206                            .dwattr $C$DW$221, DW_AT_name("Util_parseUint32")
    2207                            .dwattr $C$DW$221, DW_AT_TI_call
    2208                    
    2209 00000126 FFFEF7FF!         BL        Util_parseUint32      ; [DPU_V7M3_PIPE] |1123|  ; [KEEP 32-BIT INS]
    2210                            ; CALL OCCURS {Util_parseUint32 }  ; [] |1123| 
    2211 0000012a 4606              MOV       V3, A1                ; [DPU_V7M3_PIPE] |1123|  ; [ORIG 16-BIT INS]
    2212                            .dwpsn  file "../Application/sensor.c",line 1125,column 9,is_stmt,isa 1
    2213 0000012c 1D20              ADDS      A1, V1, #4            ; [DPU_V7M3_PIPE] |1125|  ; [ORIG 16-BIT INS]
    2214                    $C$DW$222       .dwtag  DW_TAG_TI_branch
    2215                            .dwattr $C$DW$222, DW_AT_low_pc(0x00)
    2216                            .dwattr $C$DW$222, DW_AT_name("Util_parseUint32")
    2217                            .dwattr $C$DW$222, DW_AT_TI_call
    2218                    
    2219 0000012e FFFEF7FF!         BL        Util_parseUint32      ; [DPU_V7M3_PIPE] |1125|  ; [KEEP 32-BIT INS]
    2220                            ; CALL OCCURS {Util_parseUint32 }  ; [] |1125| 
    2221 00000132 4681              MOV       V6, A1                ; [DPU_V7M3_PIPE] |1125|  ; [ORIG 16-BIT INS]
    2222                            .dwpsn  file "../Application/sensor.c",line 1128,column 9,is_stmt,isa 1
    2223 00000134 7A38              LDRB      A1, [V4, #8]          ; [DPU_V7M3_PIPE] |1128|  ; [ORIG 16-BIT INS]
    2224                            .dwpsn  file "../Application/sensor.c",line 1120,column 9,is_stmt,isa 1
    2225 00000136 4644              MOV       V1, V5                ; [DPU_V7M3_PIPE] |1120|  ; [ORIG 16-BIT INS]
    2226                            .dwpsn  file "../Application/sensor.c",line 1128,column 9,is_stmt,isa 1
    2227 00000138 0028F888          STRB      A1, [V5, #40]         ; [DPU_V7M3_PIPE] |1128|  ; [KEEP 32-BIT INS]
    2228                            .dwpsn  file "../Application/sensor.c",line 1129,column 9,is_stmt,isa 1
    2229 0000013c 2802              CMP       A1, #2                ; [DPU_V7M3_PIPE] |1129|  ; [ORIG 16-BIT INS]
    2230 0000013e D006              BEQ       ||$C$L16||            ; [DPU_V7M3_PIPE] |1129|  ; [ORIG 16-BIT INS]
    2231                            ; BRANCHCC OCCURS {||$C$L16||}   ; [] |1129| 
    2232                    ;* --------------------------------------------------------------------------*
    2233                            .dwpsn  file "../Application/sensor.c",line 1135,column 13,is_stmt,isa 1
    2234 00000140 6839              LDR       A2, [V4, #0]          ; [DPU_V7M3_PIPE] |1135|  ; [ORIG 16-BIT INS]
    2235 00000142 0020F104          ADD       A1, V1, #32           ; [DPU_V7M3_PIPE]  ; [KEEP 32-BIT INS]
    2236 00000146 6001              STR       A2, [A1, #0]          ; [DPU_V7M3_PIPE] |1135|  ; [ORIG 16-BIT INS]
    2237 00000148 687B              LDR       A4, [V4, #4]          ; [DPU_V7M3_PIPE] |1135|  ; [ORIG 16-BIT INS]
    2238 0000014a 6043              STR       A4, [A1, #4]          ; [DPU_V7M3_PIPE] |1135|  ; [ORIG 16-BIT INS]
    2239 0000014c E001              B         ||$C$L17||            ; [DPU_V7M3_PIPE] |1135|  ; [ORIG 16-BIT INS]
    2240                            ; BRANCH OCCURS {||$C$L17||}     ; [] |1135| 
    2241                    ;* --------------------------------------------------------------------------*
    2242 0000014e           ||$C$L16||:    
    2243                            .dwpsn  file "../Application/sensor.c",line 1131,column 13,is_stmt,isa 1
    2244 0000014e 8838              LDRH      A1, [V4, #0]          ; [DPU_V7M3_PIPE] |1131|  ; [ORIG 16-BIT INS]
    2245 00000150 8420              STRH      A1, [V1, #32]         ; [DPU_V7M3_PIPE] |1131|  ; [ORIG 16-BIT INS]
    2246                    ;* --------------------------------------------------------------------------*
    2247 00000152           ||$C$L17||:    
    2248                            .dwpsn  file "../Application/sensor.c",line 1279,column 9,is_stmt,isa 1
    2249 00000152 0001F005          AND       A1, V2, #1            ; [DPU_V7M3_PIPE] |1279|  ; [KEEP 32-BIT INS]
    2250                            .dwpsn  file "../Application/sensor.c",line 1283,column 5,is_stmt,isa 1
    2251 00000156 08A9              LSRS      A2, V2, #2            ; [DPU_V7M3_PIPE] |1283|  ; [ORIG 16-BIT INS]
    2252 00000158 BF28              IT        CS                    ; [DPU_V7M3_PIPE]  ; [ORIG 16-BIT INS]
    2253                            .dwpsn  file "../Application/sensor.c",line 1285,column 9,is_stmt,isa 1
    2254 0000015a 0002F040          ORRCS     A1, A1, #2            ; [DPU_V7M3_PIPE] |1285|  ; [KEEP 32-BIT INS]
    2255                            .dwpsn  file "../Application/sensor.c",line 1294,column 5,is_stmt,isa 1
TI ARM Assembler PC v18.1.4 Wed Dec 12 18:32:41 2018

Tools Copyright (c) 1996-2018 Texas Instruments Incorporated
C:\Users\DAMIAN\AppData\Local\Temp\{7491C7A3-CB92-4437-A790-AF4273D670A8} PAGE   42

    2256 0000015e 0929              LSRS      A2, V2, #4            ; [DPU_V7M3_PIPE] |1294|  ; [ORIG 16-BIT INS]
    2257 00000160 BF28              IT        CS                    ; [DPU_V7M3_PIPE]  ; [ORIG 16-BIT INS]
    2258                            .dwpsn  file "../Application/sensor.c",line 1296,column 9,is_stmt,isa 1
    2259 00000162 0008F040          ORRCS     A1, A1, #8            ; [DPU_V7M3_PIPE] |1296|  ; [KEEP 32-BIT INS]
    2260                            .dwpsn  file "../Application/sensor.c",line 1298,column 5,is_stmt,isa 1
    2261 00000166 0969              LSRS      A2, V2, #5            ; [DPU_V7M3_PIPE] |1298|  ; [ORIG 16-BIT INS]
    2262 00000168 BF28              IT        CS                    ; [DPU_V7M3_PIPE]  ; [ORIG 16-BIT INS]
    2263                            .dwpsn  file "../Application/sensor.c",line 1300,column 9,is_stmt,isa 1
    2264 0000016a 0010F040          ORRCS     A1, A1, #16           ; [DPU_V7M3_PIPE] |1300|  ; [KEEP 32-BIT INS]
    2265                            .dwpsn  file "../Application/sensor.c",line 1139,column 9,is_stmt,isa 1
    2266 0000016e 85E0              STRH      A1, [V1, #46]         ; [DPU_V7M3_PIPE] |1139|  ; [ORIG 16-BIT INS]
    2267                            .dwpsn  file "../Application/sensor.c",line 1142,column 13,is_stmt,isa 1
    2268 00000170 4285              CMP       V2, A1                ; [DPU_V7M3_PIPE] |1142|  ; [ORIG 16-BIT INS]
    2269 00000172 BF14              ITE       NE                    ; [DPU_V7M3_PIPE]  ; [ORIG 16-BIT INS]
    2270 00000174 2502              MOVNE     V2, #2                ; [DPU_V7M3_PIPE] |1142|  ; [ORIG 16-BIT INS]
    2271 00000176 2500              MOVEQ     V2, #0                ; [DPU_V7M3_PIPE] |1142|  ; [ORIG 16-BIT INS]
    2272                            .dwpsn  file "../Application/sensor.c",line 1146,column 9,is_stmt,isa 1
    2273 00000178 7F7AF5B6          CMP       V3, #1000             ; [DPU_V7M3_PIPE] |1146|  ; [KEEP 32-BIT INS]
    2274                            .dwpsn  file "../Application/sensor.c",line 1144,column 9,is_stmt,isa 1
    2275 0000017c 0006F8AD          STRH      A1, [SP, #6]          ; [DPU_V7M3_PIPE] |1144|  ; [KEEP 32-BIT INS]
    2276                            .dwpsn  file "../Application/sensor.c",line 1146,column 9,is_stmt,isa 1
    2277 00000180 D316              BCC       ||$C$L18||            ; [DPU_V7M3_PIPE] |1146|  ; [ORIG 16-BIT INS]
    2278                            ; BRANCHCC OCCURS {||$C$L18||}   ; [] |1146| 
    2279                    ;* --------------------------------------------------------------------------*
    2280 00000182 482E              LDR       A1, $C$CON7           ; [DPU_V7M3_PIPE] |1146|  ; [ORIG 16-BIT INS]
    2281 00000184 42B0              CMP       A1, V3                ; [DPU_V7M3_PIPE] |1146|  ; [ORIG 16-BIT INS]
    2282 00000186 D313              BCC       ||$C$L18||            ; [DPU_V7M3_PIPE] |1146|  ; [ORIG 16-BIT INS]
    2283                            ; BRANCHCC OCCURS {||$C$L18||}   ; [] |1146| 
    2284                    ;* --------------------------------------------------------------------------*
    2285                            .dwpsn  file "../Application/sensor.c",line 1154,column 13,is_stmt,isa 1
    2286 00000188 6326              STR       V3, [V1, #48]         ; [DPU_V7M3_PIPE] |1154|  ; [ORIG 16-BIT INS]
    2287                            .dwpsn  file "../Application/sensor.c",line 1158,column 17,is_stmt,isa 1
    2288                    $C$DW$223       .dwtag  DW_TAG_TI_branch
    2289                            .dwattr $C$DW$223, DW_AT_low_pc(0x00)
    2290                            .dwattr $C$DW$223, DW_AT_name("ApiMac_randomByte")
    2291                            .dwattr $C$DW$223, DW_AT_TI_call
    2292                    
    2293 0000018a FFFEF7FF!         BL        ApiMac_randomByte     ; [DPU_V7M3_PIPE] |1158|  ; [KEEP 32-BIT INS]
    2294                            ; CALL OCCURS {ApiMac_randomByte }  ; [] |1158| 
    2295 0000018e 4680              MOV       V5, A1                ; [DPU_V7M3_PIPE] |1158|  ; [ORIG 16-BIT INS]
    2296                    $C$DW$224       .dwtag  DW_TAG_TI_branch
    2297                            .dwattr $C$DW$224, DW_AT_low_pc(0x00)
    2298                            .dwattr $C$DW$224, DW_AT_name("ApiMac_randomByte")
    2299                            .dwattr $C$DW$224, DW_AT_TI_call
    2300                    
    2301 00000190 FFFEF7FF!         BL        ApiMac_randomByte     ; [DPU_V7M3_PIPE] |1158|  ; [KEEP 32-BIT INS]
    2302                            ; CALL OCCURS {ApiMac_randomByte }  ; [] |1158| 
    2303 00000194 2808EB00          ADD       V5, A1, V5, LSL #8    ; [DPU_V7M3_PIPE] |1158|  ; [KEEP 32-BIT INS]
    2304                    $C$DW$225       .dwtag  DW_TAG_TI_branch
    2305                            .dwattr $C$DW$225, DW_AT_low_pc(0x00)
    2306                            .dwattr $C$DW$225, DW_AT_name("ApiMac_randomByte")
    2307                            .dwattr $C$DW$225, DW_AT_TI_call
    2308                    
    2309 00000198 FFFEF7FF!         BL        ApiMac_randomByte     ; [DPU_V7M3_PIPE] |1158|  ; [KEEP 32-BIT INS]
    2310                            ; CALL OCCURS {ApiMac_randomByte }  ; [] |1158| 
TI ARM Assembler PC v18.1.4 Wed Dec 12 18:32:41 2018

Tools Copyright (c) 1996-2018 Texas Instruments Incorporated
C:\Users\DAMIAN\AppData\Local\Temp\{7491C7A3-CB92-4437-A790-AF4273D670A8} PAGE   43

    2311 0000019c 2008EB00          ADD       A1, A1, V5, LSL #8    ; [DPU_V7M3_PIPE] |1158|  ; [KEEP 32-BIT INS]
    2312                            .dwpsn  file "../Application/sensor.c",line 1160,column 17,is_stmt,isa 1
    2313 000001a0 F1F6FBB0          UDIV      A2, A1, V3            ; [DPU_V7M3_PIPE] |1160|  ; [KEEP 32-BIT INS]
    2314 000001a4 4371              MULS      A2, A2, V3            ; [DPU_V7M3_PIPE] |1160|  ; [ORIG 16-BIT INS]
    2315 000001a6 1A40              SUBS      A1, A1, A2            ; [DPU_V7M3_PIPE] |1160|  ; [ORIG 16-BIT INS]
    2316 000001a8 300A              ADDS      A1, A1, #10           ; [DPU_V7M3_PIPE] |1160|  ; [ORIG 16-BIT INS]
    2317                            .dwpsn  file "../Application/sensor.c",line 1162,column 17,is_stmt,isa 1
    2318                    $C$DW$226       .dwtag  DW_TAG_TI_branch
    2319                            .dwattr $C$DW$226, DW_AT_low_pc(0x00)
    2320                            .dwattr $C$DW$226, DW_AT_name("Ssf_setReadingClock")
    2321                            .dwattr $C$DW$226, DW_AT_TI_call
    2322                    
    2323 000001aa FFFEF7FF!         BL        Ssf_setReadingClock   ; [DPU_V7M3_PIPE] |1162|  ; [KEEP 32-BIT INS]
    2324                            ; CALL OCCURS {Ssf_setReadingClock }  ; [] |1162| 
    2325 000001ae E000              B         ||$C$L19||            ; [DPU_V7M3_PIPE] |1162|  ; [ORIG 16-BIT INS]
    2326                            ; BRANCH OCCURS {||$C$L19||}     ; [] |1162| 
    2327                    ;* --------------------------------------------------------------------------*
    2328 000001b0           ||$C$L18||:    
    2329                            .dwpsn  file "../Application/sensor.c",line 1149,column 13,is_stmt,isa 1
    2330 000001b0 2502              MOVS      V2, #2                ; [DPU_V7M3_PIPE] |1149|  ; [ORIG 16-BIT INS]
    2331                    ;* --------------------------------------------------------------------------*
    2332 000001b2           ||$C$L19||:    
    2333                            .dwpsn  file "../Application/sensor.c",line 1166,column 9,is_stmt,isa 1
    2334 000001b2 6B20              LDR       A1, [V1, #48]         ; [DPU_V7M3_PIPE] |1166|  ; [ORIG 16-BIT INS]
    2335                            .dwpsn  file "../Application/sensor.c",line 1168,column 9,is_stmt,isa 1
    2336 000001b4 7F7AF5B9          CMP       V6, #1000             ; [DPU_V7M3_PIPE] |1168|  ; [KEEP 32-BIT INS]
    2337                            .dwpsn  file "../Application/sensor.c",line 1166,column 9,is_stmt,isa 1
    2338 000001b8 9002              STR       A1, [SP, #8]          ; [DPU_V7M3_PIPE] |1166|  ; [ORIG 16-BIT INS]
    2339                            .dwpsn  file "../Application/sensor.c",line 1168,column 9,is_stmt,isa 1
    2340 000001ba D309              BCC       ||$C$L20||            ; [DPU_V7M3_PIPE] |1168|  ; [ORIG 16-BIT INS]
    2341                            ; BRANCHCC OCCURS {||$C$L20||}   ; [] |1168| 
    2342                    ;* --------------------------------------------------------------------------*
    2343 000001bc 7010F242          MOV       A1, #10000            ; [DPU_V7M3_PIPE] |1168|  ; [KEEP 32-BIT INS]
    2344 000001c0 4548              CMP       A1, V6                ; [DPU_V7M3_PIPE] |1168|  ; [ORIG 16-BIT INS]
    2345 000001c2 D305              BCC       ||$C$L20||            ; [DPU_V7M3_PIPE] |1168|  ; [ORIG 16-BIT INS]
    2346                            ; BRANCHCC OCCURS {||$C$L20||}   ; [] |1168| 
    2347                    ;* --------------------------------------------------------------------------*
    2348                            .dwpsn  file "../Application/sensor.c",line 1175,column 13,is_stmt,isa 1
    2349 000001c4 9034F8C4          STR       V6, [V1, #52]         ; [DPU_V7M3_PIPE] |1175|  ; [KEEP 32-BIT INS]
    2350                            .dwpsn  file "../Application/sensor.c",line 1176,column 13,is_stmt,isa 1
    2351 000001c8 4648              MOV       A1, V6                ; [DPU_V7M3_PIPE] |1176|  ; [ORIG 16-BIT INS]
    2352                    $C$DW$227       .dwtag  DW_TAG_TI_branch
    2353                            .dwattr $C$DW$227, DW_AT_low_pc(0x00)
    2354                            .dwattr $C$DW$227, DW_AT_name("Jdllc_setPollRate")
    2355                            .dwattr $C$DW$227, DW_AT_TI_call
    2356                    
    2357 000001ca FFFEF7FF!         BL        Jdllc_setPollRate     ; [DPU_V7M3_PIPE] |1176|  ; [KEEP 32-BIT INS]
    2358                            ; CALL OCCURS {Jdllc_setPollRate }  ; [] |1176| 
    2359 000001ce E000              B         ||$C$L21||            ; [DPU_V7M3_PIPE] |1176|  ; [ORIG 16-BIT INS]
    2360                            ; BRANCH OCCURS {||$C$L21||}     ; [] |1176| 
    2361                    ;* --------------------------------------------------------------------------*
    2362 000001d0           ||$C$L20||:    
    2363                            .dwpsn  file "../Application/sensor.c",line 1171,column 13,is_stmt,isa 1
    2364 000001d0 2502              MOVS      V2, #2                ; [DPU_V7M3_PIPE] |1171|  ; [ORIG 16-BIT INS]
    2365                    ;* --------------------------------------------------------------------------*
TI ARM Assembler PC v18.1.4 Wed Dec 12 18:32:41 2018

Tools Copyright (c) 1996-2018 Texas Instruments Incorporated
C:\Users\DAMIAN\AppData\Local\Temp\{7491C7A3-CB92-4437-A790-AF4273D670A8} PAGE   44

    2366 000001d2           ||$C$L21||:    
    2367                            .dwpsn  file "../Application/sensor.c",line 1178,column 9,is_stmt,isa 1
    2368 000001d2 6B60              LDR       A1, [V1, #52]         ; [DPU_V7M3_PIPE] |1178|  ; [ORIG 16-BIT INS]
    2369 000001d4 9003              STR       A1, [SP, #12]         ; [DPU_V7M3_PIPE] |1178|  ; [ORIG 16-BIT INS]
    2370 000001d6 E001              B         ||$C$L23||            ; [DPU_V7M3_PIPE] |1178|  ; [ORIG 16-BIT INS]
    2371                            ; BRANCH OCCURS {||$C$L23||}     ; [] |1178| 
    2372                    ;* --------------------------------------------------------------------------*
    2373 000001d8           ||$C$L22||:    
    2374 000001d8 4644              MOV       V1, V5                ; [DPU_V7M3_PIPE]  ; [ORIG 16-BIT INS]
    2375                            .dwpsn  file "../Application/sensor.c",line 1106,column 31,is_stmt,isa 1
    2376 000001da 2501              MOVS      V2, #1                ; [DPU_V7M3_PIPE] |1106|  ; [ORIG 16-BIT INS]
    2377                    ;* --------------------------------------------------------------------------*
    2378 000001dc           ||$C$L23||:    
    2379                            .dwpsn  file "../Application/sensor.c",line 1182,column 5,is_stmt,isa 1
    2380 000001dc 2602              MOVS      V3, #2                ; [DPU_V7M3_PIPE] |1182|  ; [ORIG 16-BIT INS]
    2381                            .dwpsn  file "../Application/sensor.c",line 1183,column 5,is_stmt,isa 1
    2382 000001de 5005F88D          STRB      V2, [SP, #5]          ; [DPU_V7M3_PIPE] |1183|  ; [KEEP 32-BIT INS]
    2383                            .dwpsn  file "../Application/sensor.c",line 1186,column 5,is_stmt,isa 1
    2384 000001e2 A801              ADD       A1, SP, #4            ; [DPU_V7M3_PIPE] |1186|  ; [ORIG 16-BIT INS]
    2385                            .dwpsn  file "../Application/sensor.c",line 1182,column 5,is_stmt,isa 1
    2386 000001e4 6004F88D          STRB      V3, [SP, #4]          ; [DPU_V7M3_PIPE] |1182|  ; [KEEP 32-BIT INS]
    2387                            .dwpsn  file "../Application/sensor.c",line 1186,column 5,is_stmt,isa 1
    2388                    $C$DW$228       .dwtag  DW_TAG_TI_branch
    2389                            .dwattr $C$DW$228, DW_AT_low_pc(0x00)
    2390                            .dwattr $C$DW$228, DW_AT_name("Ssf_configurationUpdate")
    2391                            .dwattr $C$DW$228, DW_AT_TI_call
    2392                    
    2393 000001e8 FFFEF7FF!         BL        Ssf_configurationUpdate ; [DPU_V7M3_PIPE] |1186|  ; [KEEP 32-BIT INS]
    2394                            ; CALL OCCURS {Ssf_configurationUpdate }  ; [] |1186| 
    2395                            .dwpsn  file "../Application/sensor.c",line 1255,column 5,is_stmt,isa 1
    2396 000001ec AD04              ADD       V2, SP, #16           ; [DPU_V7M3_PIPE] |1255|  ; [ORIG 16-BIT INS]
    2397                            .dwpsn  file "../Application/sensor.c",line 1256,column 5,is_stmt,isa 1
    2398 000001ee 0011F10D          ADD       A1, SP, #17           ; [DPU_V7M3_PIPE] |1256|  ; [KEEP 32-BIT INS]
    2399 000001f2 1005F89D          LDRB      A2, [SP, #5]          ; [DPU_V7M3_PIPE] |1256|  ; [KEEP 32-BIT INS]
    2400                            .dwpsn  file "../Application/sensor.c",line 1255,column 5,is_stmt,isa 1
    2401 000001f6 702E              STRB      V3, [V2, #0]          ; [DPU_V7M3_PIPE] |1255|  ; [ORIG 16-BIT INS]
    2402                            .dwpsn  file "../Application/sensor.c",line 1256,column 5,is_stmt,isa 1
    2403                    $C$DW$229       .dwtag  DW_TAG_TI_branch
    2404                            .dwattr $C$DW$229, DW_AT_low_pc(0x00)
    2405                            .dwattr $C$DW$229, DW_AT_name("Util_bufferUint16")
    2406                            .dwattr $C$DW$229, DW_AT_TI_call
    2407                    
    2408 000001f8 FFFEF7FF!         BL        Util_bufferUint16     ; [DPU_V7M3_PIPE] |1256|  ; [KEEP 32-BIT INS]
    2409                            ; CALL OCCURS {Util_bufferUint16 }  ; [] |1256| 
    2410                            .dwpsn  file "../Application/sensor.c",line 1257,column 5,is_stmt,isa 1
    2411 000001fc 1006F8BD          LDRH      A2, [SP, #6]          ; [DPU_V7M3_PIPE] |1257|  ; [KEEP 32-BIT INS]
    2412                    $C$DW$230       .dwtag  DW_TAG_TI_branch
    2413                            .dwattr $C$DW$230, DW_AT_low_pc(0x00)
    2414                            .dwattr $C$DW$230, DW_AT_name("Util_bufferUint16")
    2415                            .dwattr $C$DW$230, DW_AT_TI_call
    2416                    
    2417 00000200 FFFEF7FF!         BL        Util_bufferUint16     ; [DPU_V7M3_PIPE] |1257|  ; [KEEP 32-BIT INS]
    2418                            ; CALL OCCURS {Util_bufferUint16 }  ; [] |1257| 
    2419                            .dwpsn  file "../Application/sensor.c",line 1258,column 5,is_stmt,isa 1
    2420 00000204 9902              LDR       A2, [SP, #8]          ; [DPU_V7M3_PIPE] |1258|  ; [ORIG 16-BIT INS]
TI ARM Assembler PC v18.1.4 Wed Dec 12 18:32:41 2018

Tools Copyright (c) 1996-2018 Texas Instruments Incorporated
C:\Users\DAMIAN\AppData\Local\Temp\{7491C7A3-CB92-4437-A790-AF4273D670A8} PAGE   45

    2421                    $C$DW$231       .dwtag  DW_TAG_TI_branch
    2422                            .dwattr $C$DW$231, DW_AT_low_pc(0x00)
    2423                            .dwattr $C$DW$231, DW_AT_name("Util_bufferUint32")
    2424                            .dwattr $C$DW$231, DW_AT_TI_call
    2425                    
    2426 00000206 FFFEF7FF!         BL        Util_bufferUint32     ; [DPU_V7M3_PIPE] |1258|  ; [KEEP 32-BIT INS]
    2427                            ; CALL OCCURS {Util_bufferUint32 }  ; [] |1258| 
    2428                            .dwpsn  file "../Application/sensor.c",line 1259,column 5,is_stmt,isa 1
    2429 0000020a 9903              LDR       A2, [SP, #12]         ; [DPU_V7M3_PIPE] |1259|  ; [ORIG 16-BIT INS]
    2430                    $C$DW$232       .dwtag  DW_TAG_TI_branch
    2431                            .dwattr $C$DW$232, DW_AT_low_pc(0x00)
    2432                            .dwattr $C$DW$232, DW_AT_name("Util_bufferUint32")
    2433                            .dwattr $C$DW$232, DW_AT_TI_call
    2434                    
    2435 0000020c FFFEF7FF!         BL        Util_bufferUint32     ; [DPU_V7M3_PIPE] |1259|  ; [KEEP 32-BIT INS]
    2436                            ; CALL OCCURS {Util_bufferUint32 }  ; [] |1259| 
    2437                            .dwpsn  file "../Application/sensor.c",line 1261,column 5,is_stmt,isa 1
    2438 00000210 4639              MOV       A2, V4                ; [DPU_V7M3_PIPE] |1261|  ; [ORIG 16-BIT INS]
    2439 00000212 2201              MOVS      A3, #1                ; [DPU_V7M3_PIPE] |1261|  ; [ORIG 16-BIT INS]
    2440 00000214 230D              MOVS      A4, #13               ; [DPU_V7M3_PIPE] |1261|  ; [ORIG 16-BIT INS]
    2441 00000216 9500              STR       V2, [SP, #0]          ; [DPU_V7M3_PIPE] |1261|  ; [ORIG 16-BIT INS]
    2442 00000218 4630              MOV       A1, V3                ; [DPU_V7M3_PIPE] |1261|  ; [ORIG 16-BIT INS]
    2443                    $C$DW$233       .dwtag  DW_TAG_TI_branch
    2444                            .dwattr $C$DW$233, DW_AT_low_pc(0x00)
    2445                            .dwattr $C$DW$233, DW_AT_name("Sensor_sendMsg")
    2446                            .dwattr $C$DW$233, DW_AT_TI_call
    2447                    
    2448 0000021a FFFEF7FF!         BL        Sensor_sendMsg        ; [DPU_V7M3_PIPE] |1261|  ; [KEEP 32-BIT INS]
    2449                            ; CALL OCCURS {Sensor_sendMsg }  ; [] |1261| 
    2450                            .dwpsn  file "../Application/sensor.c",line 724,column 17,is_stmt,isa 1
    2451 0000021e 0066F8B4          LDRH      A1, [V1, #102]        ; [DPU_V7M3_PIPE] |724|  ; [KEEP 32-BIT INS]
    2452 00000222 1C40              ADDS      A1, A1, #1            ; [DPU_V7M3_PIPE] |724|  ; [ORIG 16-BIT INS]
    2453 00000224 0066F8A4          STRH      A1, [V1, #102]        ; [DPU_V7M3_PIPE] |724|  ; [KEEP 32-BIT INS]
    2454                    ;* --------------------------------------------------------------------------*
    2455 00000228           ||$C$L24||:    
    2456 00000228 B009              ADD       SP, SP, #36           ; [DPU_V7M3_PIPE]  ; [ORIG 16-BIT INS]
    2457                            .dwcfi  cfa_offset, 28
    2458                    $C$DW$234       .dwtag  DW_TAG_TI_branch
    2459                            .dwattr $C$DW$234, DW_AT_low_pc(0x00)
    2460                            .dwattr $C$DW$234, DW_AT_TI_return
    2461                    
    2462 0000022a 83F0E8BD          POP       {V1, V2, V3, V4, V5, V6, PC} ; [DPU_V7M3_PIPE]  ; [KEEP 32-BIT INS]
    2463                            .dwcfi  cfa_offset, 0
    2464                            .dwcfi  restore_reg, 9
    2465                            .dwcfi  restore_reg, 8
    2466                            .dwcfi  restore_reg, 7
    2467                            .dwcfi  restore_reg, 6
    2468                            .dwcfi  restore_reg, 5
    2469                            .dwcfi  restore_reg, 4
    2470                            ; BRANCH OCCURS                  ; [] 
    2471                            .dwattr $C$DW$197, DW_AT_TI_end_file("../Application/sensor.c")
    2472                            .dwattr $C$DW$197, DW_AT_TI_end_line(0x311)
    2473                            .dwattr $C$DW$197, DW_AT_TI_end_column(0x01)
    2474                            .dwendentry
    2475                            .dwendtag $C$DW$197
TI ARM Assembler PC v18.1.4 Wed Dec 12 18:32:41 2018

Tools Copyright (c) 1996-2018 Texas Instruments Incorporated
C:\Users\DAMIAN\AppData\Local\Temp\{7491C7A3-CB92-4437-A790-AF4273D670A8} PAGE   46

    2476                    
    2477 00000000                   .sect   ".text:dataCnfCB"
    2478                            .clink
    2479                            .thumbfunc dataCnfCB
    2480 00000000                   .thumb
    2481                    
    2482                    $C$DW$235       .dwtag  DW_TAG_subprogram
    2483                            .dwattr $C$DW$235, DW_AT_name("dataCnfCB")
    2484                            .dwattr $C$DW$235, DW_AT_low_pc(dataCnfCB)
    2485                            .dwattr $C$DW$235, DW_AT_high_pc(0x00)
    2486                            .dwattr $C$DW$235, DW_AT_TI_symbol_name("dataCnfCB")
    2487                            .dwattr $C$DW$235, DW_AT_TI_begin_file("../Application/sensor.c")
    2488                            .dwattr $C$DW$235, DW_AT_TI_begin_line(0x25e)
    2489                            .dwattr $C$DW$235, DW_AT_TI_begin_column(0x0d)
    2490                            .dwattr $C$DW$235, DW_AT_decl_file("../Application/sensor.c")
    2491                            .dwattr $C$DW$235, DW_AT_decl_line(0x25e)
    2492                            .dwattr $C$DW$235, DW_AT_decl_column(0x0d)
    2493                            .dwattr $C$DW$235, DW_AT_TI_max_frame_size(0x10)
    2494                            .dwpsn  file "../Application/sensor.c",line 607,column 1,is_stmt,address dataCnfCB,isa 1
    2495                    
    2496                            .dwfde $C$DW$CIE, dataCnfCB
    2497                    $C$DW$236       .dwtag  DW_TAG_formal_parameter
    2498                            .dwattr $C$DW$236, DW_AT_name("pDataCnf")
    2499                            .dwattr $C$DW$236, DW_AT_TI_symbol_name("pDataCnf")
    2500                            .dwattr $C$DW$236, DW_AT_type(*$C$DW$T$326)
    2501                            .dwattr $C$DW$236, DW_AT_location[DW_OP_reg0]
    2502                    
    2503                    
    2504                    ;*****************************************************************************
    2505                    ;* FUNCTION NAME: dataCnfCB                                                  *
    2506                    ;*                                                                           *
    2507                    ;*   Regs Modified     : A1,A2,A3,A4,V1,V2,V3,V9,SP,LR,SR                    *
    2508                    ;*   Regs Used         : A1,A2,A3,A4,V1,V2,V3,V9,SP,LR,SR                    *
    2509                    ;*   Local Frame Size  : 0 Args + 0 Auto + 16 Save = 16 byte                 *
    2510                    ;*****************************************************************************
    2511                    dataCnfCB:
    2512                    ;* --------------------------------------------------------------------------*
    2513                    ;* A2    assigned to $O$C1
    2514                    ;* V1    assigned to $O$C2
    2515                    ;* V1    assigned to $O$K4
    2516                    ;* A2    assigned to $O$U74
    2517                    ;* V3    assigned to $O$v7
    2518                    ;* A2    assigned to $O$v6
    2519                    ;* A1    assigned to $O$v5
    2520                    ;* A1    assigned to $O$v4
    2521                    ;* A1    assigned to $O$v3
    2522                    ;* A2    assigned to $O$v2
    2523                    ;* V2    assigned to pDataCnf
    2524                    $C$DW$237       .dwtag  DW_TAG_variable
    2525                            .dwattr $C$DW$237, DW_AT_name("pDataCnf")
    2526                            .dwattr $C$DW$237, DW_AT_TI_symbol_name("pDataCnf")
    2527                            .dwattr $C$DW$237, DW_AT_type(*$C$DW$T$890)
    2528                            .dwattr $C$DW$237, DW_AT_location[DW_OP_reg5]
    2529                    
    2530                    ;* A1    assigned to endToEndDelay
TI ARM Assembler PC v18.1.4 Wed Dec 12 18:32:41 2018

Tools Copyright (c) 1996-2018 Texas Instruments Incorporated
C:\Users\DAMIAN\AppData\Local\Temp\{7491C7A3-CB92-4437-A790-AF4273D670A8} PAGE   47

    2531                    $C$DW$238       .dwtag  DW_TAG_variable
    2532                            .dwattr $C$DW$238, DW_AT_name("endToEndDelay")
    2533                            .dwattr $C$DW$238, DW_AT_TI_symbol_name("endToEndDelay")
    2534                            .dwattr $C$DW$238, DW_AT_type(*$C$DW$T$34)
    2535                            .dwattr $C$DW$238, DW_AT_location[DW_OP_reg0]
    2536                    
    2537                            .dwcfi  cfa_offset, 0
    2538 00000000 B570              PUSH      {V1, V2, V3, LR}      ; [DPU_V7M3_PIPE]  ; [ORIG 16-BIT INS]
    2539                            .dwcfi  cfa_offset, 16
    2540                            .dwcfi  save_reg_to_mem, 14, -4
    2541                            .dwcfi  save_reg_to_mem, 6, -8
    2542                            .dwcfi  save_reg_to_mem, 5, -12
    2543                            .dwcfi  save_reg_to_mem, 4, -16
    2544 00000002 4605              MOV       V2, A1                ; [DPU_V7M3_PIPE] |607|  ; [ORIG 16-BIT INS]
    2545                            .dwpsn  file "../Application/sensor.c",line 610,column 5,is_stmt,isa 1
    2546 00000004 4C38              LDR       V1, $C$CON10          ; [DPU_V7M3_PIPE] |610|  ; [ORIG 16-BIT INS]
    2547 00000006 7829              LDRB      A2, [V2, #0]          ; [DPU_V7M3_PIPE] |610|  ; [ORIG 16-BIT INS]
    2548 00000008 006CF8B4          LDRH      A1, [V1, #108]        ; [DPU_V7M3_PIPE] |610|  ; [KEEP 32-BIT INS]
    2549 0000000c 29E1              CMP       A2, #225              ; [DPU_V7M3_PIPE] |610|  ; [ORIG 16-BIT INS]
    2550 0000000e D018              BEQ       ||$C$L27||            ; [DPU_V7M3_PIPE] |610|  ; [ORIG 16-BIT INS]
    2551                            ; BRANCHCC OCCURS {||$C$L27||}   ; [] |610| 
    2552                    ;* --------------------------------------------------------------------------*
    2553                            .dwpsn  file "../Application/sensor.c",line 614,column 10,is_stmt,isa 1
    2554 00000010 006EF8B4          LDRH      A1, [V1, #110]        ; [DPU_V7M3_PIPE] |614|  ; [KEEP 32-BIT INS]
    2555 00000014 29E9              CMP       A2, #233              ; [DPU_V7M3_PIPE] |614|  ; [ORIG 16-BIT INS]
    2556 00000016 D00F              BEQ       ||$C$L26||            ; [DPU_V7M3_PIPE] |614|  ; [ORIG 16-BIT INS]
    2557                            ; BRANCHCC OCCURS {||$C$L26||}   ; [] |614| 
    2558                    ;* --------------------------------------------------------------------------*
    2559                            .dwpsn  file "../Application/sensor.c",line 621,column 10,is_stmt,isa 1
    2560 00000018 0070F8B4          LDRH      A1, [V1, #112]        ; [DPU_V7M3_PIPE] |621|  ; [KEEP 32-BIT INS]
    2561 0000001c B921              CBNZ      A2, ||$C$L25||        ; []  ; [ORIG 16-BIT INS]
    2562                            ; BRANCHCC OCCURS {||$C$L25||}   ; [] |621| 
    2563                    ;* --------------------------------------------------------------------------*
    2564                            .dwpsn  file "../Application/sensor.c",line 631,column 9,is_stmt,isa 1
    2565 0000001e 6929              LDR       A2, [V2, #16]         ; [DPU_V7M3_PIPE] |631|  ; [ORIG 16-BIT INS]
    2566 00000020 2000              MOVS      A1, #0                ; [DPU_V7M3_PIPE] |631|  ; [ORIG 16-BIT INS]
    2567                    $C$DW$239       .dwtag  DW_TAG_TI_branch
    2568                            .dwattr $C$DW$239, DW_AT_low_pc(0x00)
    2569                            .dwattr $C$DW$239, DW_AT_name("Ssf_updateFrameCounter")
    2570                            .dwattr $C$DW$239, DW_AT_TI_call
    2571                    
    2572 00000022 FFFEF7FF!         BL        Ssf_updateFrameCounter ; [DPU_V7M3_PIPE] |631|  ; [KEEP 32-BIT INS]
    2573                            ; CALL OCCURS {Ssf_updateFrameCounter }  ; [] |631| 
    2574 00000026 E010              B         ||$C$L28||            ; [DPU_V7M3_PIPE] |631|  ; [ORIG 16-BIT INS]
    2575                            ; BRANCH OCCURS {||$C$L28||}     ; [] |631| 
    2576                    ;* --------------------------------------------------------------------------*
    2577 00000028           ||$C$L25||:    
    2578                            .dwpsn  file "../Application/sensor.c",line 623,column 9,is_stmt,isa 1
    2579 00000028 1C40              ADDS      A1, A1, #1            ; [DPU_V7M3_PIPE] |623|  ; [ORIG 16-BIT INS]
    2580 0000002a B280              UXTH      A1, A1                ; [DPU_V7M3_PIPE] |623|  ; [ORIG 16-BIT INS]
    2581 0000002c 0070F8A4          STRH      A1, [V1, #112]        ; [DPU_V7M3_PIPE] |623|  ; [KEEP 32-BIT INS]
    2582                            .dwpsn  file "../Application/sensor.c",line 627,column 9,is_stmt,isa 1
    2583 00000030 A02A              ADR       A1, $C$SL1            ; [DPU_V7M3_PIPE] |627|  ; [ORIG 16-BIT INS]
    2584                    $C$DW$240       .dwtag  DW_TAG_TI_branch
    2585                            .dwattr $C$DW$240, DW_AT_low_pc(0x00)
TI ARM Assembler PC v18.1.4 Wed Dec 12 18:32:41 2018

Tools Copyright (c) 1996-2018 Texas Instruments Incorporated
C:\Users\DAMIAN\AppData\Local\Temp\{7491C7A3-CB92-4437-A790-AF4273D670A8} PAGE   48

    2586                            .dwattr $C$DW$240, DW_AT_name("Ssf_displayError")
    2587                            .dwattr $C$DW$240, DW_AT_TI_call
    2588                    
    2589 00000032 FFFEF7FF!         BL        Ssf_displayError      ; [DPU_V7M3_PIPE] |627|  ; [KEEP 32-BIT INS]
    2590                            ; CALL OCCURS {Ssf_displayError }  ; [] |627| 
    2591                            .dwpsn  file "../Application/sensor.c",line 628,column 5,is_stmt,isa 1
    2592 00000036 E008              B         ||$C$L28||            ; [DPU_V7M3_PIPE] |628|  ; [ORIG 16-BIT INS]
    2593                            ; BRANCH OCCURS {||$C$L28||}     ; [] |628| 
    2594                    ;* --------------------------------------------------------------------------*
    2595 00000038           ||$C$L26||:    
    2596                            .dwpsn  file "../Application/sensor.c",line 616,column 9,is_stmt,isa 1
    2597 00000038 1C40              ADDS      A1, A1, #1            ; [DPU_V7M3_PIPE] |616|  ; [ORIG 16-BIT INS]
    2598 0000003a B280              UXTH      A1, A1                ; [DPU_V7M3_PIPE] |616|  ; [ORIG 16-BIT INS]
    2599 0000003c 006EF8A4          STRH      A1, [V1, #110]        ; [DPU_V7M3_PIPE] |616|  ; [KEEP 32-BIT INS]
    2600                            .dwpsn  file "../Application/sensor.c",line 620,column 5,is_stmt,isa 1
    2601 00000040 E003              B         ||$C$L28||            ; [DPU_V7M3_PIPE] |620|  ; [ORIG 16-BIT INS]
    2602                            ; BRANCH OCCURS {||$C$L28||}     ; [] |620| 
    2603                    ;* --------------------------------------------------------------------------*
    2604 00000042           ||$C$L27||:    
    2605                            .dwpsn  file "../Application/sensor.c",line 612,column 9,is_stmt,isa 1
    2606 00000042 1C40              ADDS      A1, A1, #1            ; [DPU_V7M3_PIPE] |612|  ; [ORIG 16-BIT INS]
    2607 00000044 B280              UXTH      A1, A1                ; [DPU_V7M3_PIPE] |612|  ; [ORIG 16-BIT INS]
    2608 00000046 006CF8A4          STRH      A1, [V1, #108]        ; [DPU_V7M3_PIPE] |612|  ; [KEEP 32-BIT INS]
    2609                    ;* --------------------------------------------------------------------------*
    2610 0000004a           ||$C$L28||:    
    2611                            .dwpsn  file "../Application/sensor.c",line 635,column 5,is_stmt,isa 1
    2612 0000004a 7869              LDRB      A2, [V2, #1]          ; [DPU_V7M3_PIPE] |635|  ; [ORIG 16-BIT INS]
    2613 0000004c 007FF031          BICS      A1, A2, #127          ; [DPU_V7M3_PIPE] |635|  ; [KEEP 32-BIT INS]
    2614 00000050 D042              BEQ       ||$C$L33||            ; [DPU_V7M3_PIPE] |635|  ; [ORIG 16-BIT INS]
    2615                            ; BRANCHCC OCCURS {||$C$L33||}   ; [] |635| 
    2616                    ;* --------------------------------------------------------------------------*
    2617                            .dwpsn  file "../Application/sensor.c",line 638,column 9,is_stmt,isa 1
    2618 00000052 0060F001          AND       A1, A2, #96           ; [DPU_V7M3_PIPE] |638|  ; [KEEP 32-BIT INS]
    2619 00000056 2840              CMP       A1, #64               ; [DPU_V7M3_PIPE] |638|  ; [ORIG 16-BIT INS]
    2620 00000058 D12A              BNE       ||$C$L31||            ; [DPU_V7M3_PIPE] |638|  ; [ORIG 16-BIT INS]
    2621                            ; BRANCHCC OCCURS {||$C$L31||}   ; [] |638| 
    2622                    ;* --------------------------------------------------------------------------*
    2623                            .dwpsn  file "../Application/sensor.c",line 641,column 13,is_stmt,isa 1
    2624 0000005a 7828              LDRB      A1, [V2, #0]          ; [DPU_V7M3_PIPE] |641|  ; [ORIG 16-BIT INS]
    2625 0000005c BB40              CBNZ      A1, ||$C$L31||        ; []  ; [ORIG 16-BIT INS]
    2626                            ; BRANCHCC OCCURS {||$C$L31||}   ; [] |641| 
    2627                    ;* --------------------------------------------------------------------------*
    2628                            .dwpsn  file "../Application/sensor.c",line 643,column 17,is_stmt,isa 1
    2629 0000005e 005EF8B4          LDRH      A1, [V1, #94]         ; [DPU_V7M3_PIPE] |643|  ; [KEEP 32-BIT INS]
    2630                            .dwpsn  file "../Application/sensor.c",line 648,column 17,is_stmt,isa 1
    2631 00000062 6966              LDR       V3, [V1, #20]         ; [DPU_V7M3_PIPE] |648|  ; [ORIG 16-BIT INS]
    2632                            .dwpsn  file "../Application/sensor.c",line 643,column 17,is_stmt,isa 1
    2633 00000064 1C40              ADDS      A1, A1, #1            ; [DPU_V7M3_PIPE] |643|  ; [ORIG 16-BIT INS]
    2634 00000066 005EF8A4          STRH      A1, [V1, #94]         ; [DPU_V7M3_PIPE] |643|  ; [KEEP 32-BIT INS]
    2635                            .dwpsn  file "../Application/sensor.c",line 648,column 17,is_stmt,isa 1
    2636                    $C$DW$241       .dwtag  DW_TAG_TI_branch
    2637                            .dwattr $C$DW$241, DW_AT_low_pc(0x00)
    2638                            .dwattr $C$DW$241, DW_AT_name("ICall_getTicks")
    2639                            .dwattr $C$DW$241, DW_AT_TI_call
    2640                    
TI ARM Assembler PC v18.1.4 Wed Dec 12 18:32:41 2018

Tools Copyright (c) 1996-2018 Texas Instruments Incorporated
C:\Users\DAMIAN\AppData\Local\Temp\{7491C7A3-CB92-4437-A790-AF4273D670A8} PAGE   49

    2641 0000006a FFFEF7FF!         BL        ICall_getTicks        ; [DPU_V7M3_PIPE] |648|  ; [KEEP 32-BIT INS]
    2642                            ; CALL OCCURS {ICall_getTicks }  ; [] |648| 
    2643 0000006e 4286              CMP       V3, A1                ; [DPU_V7M3_PIPE] |648|  ; [ORIG 16-BIT INS]
    2644 00000070 D803              BHI       ||$C$L29||            ; [DPU_V7M3_PIPE] |648|  ; [ORIG 16-BIT INS]
    2645                            ; BRANCHCC OCCURS {||$C$L29||}   ; [] |648| 
    2646                    ;* --------------------------------------------------------------------------*
    2647                            .dwpsn  file "../Application/sensor.c",line 655,column 21,is_stmt,isa 1
    2648                    $C$DW$242       .dwtag  DW_TAG_TI_branch
    2649                            .dwattr $C$DW$242, DW_AT_low_pc(0x00)
    2650                            .dwattr $C$DW$242, DW_AT_name("ICall_getTicks")
    2651                            .dwattr $C$DW$242, DW_AT_TI_call
    2652                    
    2653 00000072 FFFEF7FF!         BL        ICall_getTicks        ; [DPU_V7M3_PIPE] |655|  ; [KEEP 32-BIT INS]
    2654                            ; CALL OCCURS {ICall_getTicks }  ; [] |655| 
    2655 00000076 1B80              SUBS      A1, A1, V3            ; [DPU_V7M3_PIPE] |655|  ; [ORIG 16-BIT INS]
    2656 00000078 E003              B         ||$C$L30||            ; [DPU_V7M3_PIPE] |655|  ; [ORIG 16-BIT INS]
    2657                            ; BRANCH OCCURS {||$C$L30||}     ; [] |655| 
    2658                    ;* --------------------------------------------------------------------------*
    2659 0000007a           ||$C$L29||:    
    2660                            .dwpsn  file "../Application/sensor.c",line 650,column 21,is_stmt,isa 1
    2661                    $C$DW$243       .dwtag  DW_TAG_TI_branch
    2662                            .dwattr $C$DW$243, DW_AT_low_pc(0x00)
    2663                            .dwattr $C$DW$243, DW_AT_name("ICall_getTicks")
    2664                            .dwattr $C$DW$243, DW_AT_TI_call
    2665                    
    2666 0000007a FFFEF7FF!         BL        ICall_getTicks        ; [DPU_V7M3_PIPE] |650|  ; [KEEP 32-BIT INS]
    2667                            ; CALL OCCURS {ICall_getTicks }  ; [] |650| 
    2668 0000007e 1B80              SUBS      A1, A1, V3            ; [DPU_V7M3_PIPE] |650|  ; [ORIG 16-BIT INS]
    2669 00000080 1E40              SUBS      A1, A1, #1            ; [DPU_V7M3_PIPE] |650|  ; [ORIG 16-BIT INS]
    2670                    ;* --------------------------------------------------------------------------*
    2671 00000082           ||$C$L30||:    
    2672                            .dwpsn  file "../Application/sensor.c",line 659,column 17,is_stmt,isa 1
    2673 00000082 6086F8B4          LDRH      V3, [V1, #134]        ; [DPU_V7M3_PIPE] |659|  ; [KEEP 32-BIT INS]
    2674                            .dwpsn  file "../Application/sensor.c",line 650,column 21,is_stmt,isa 1
    2675 00000086 B280              UXTH      A1, A1                ; [DPU_V7M3_PIPE] |650|  ; [ORIG 16-BIT INS]
    2676                            .dwpsn  file "../Application/sensor.c",line 659,column 17,is_stmt,isa 1
    2677 00000088 2164              MOVS      A2, #100              ; [DPU_V7M3_PIPE] |659|  ; [ORIG 16-BIT INS]
    2678 0000008a F0F1FBB0          UDIV      A1, A1, A2            ; [DPU_V7M3_PIPE] |659|  ; [KEEP 32-BIT INS]
    2679 0000008e B280              UXTH      A1, A1                ; [DPU_V7M3_PIPE] |659|  ; [ORIG 16-BIT INS]
    2680 00000090 42B0              CMP       A1, V3                ; [DPU_V7M3_PIPE] |659|  ; [ORIG 16-BIT INS]
    2681 00000092 BFA8              IT        GE                    ; [DPU_V7M3_PIPE]  ; [ORIG 16-BIT INS]
    2682 00000094 0086F8A4          STRHGE    A1, [V1, #134]        ; [DPU_V7M3_PIPE] |659|  ; [KEEP 32-BIT INS]
    2683                            .dwpsn  file "../Application/sensor.c",line 662,column 17,is_stmt,isa 1
    2684 00000098 105EF8B4          LDRH      A2, [V1, #94]         ; [DPU_V7M3_PIPE] |662|  ; [KEEP 32-BIT INS]
    2685 0000009c 3084F8B4          LDRH      A4, [V1, #132]        ; [DPU_V7M3_PIPE] |662|  ; [KEEP 32-BIT INS]
    2686 000000a0 1E4A              SUBS      A3, A2, #1            ; [DPU_V7M3_PIPE] |662|  ; [ORIG 16-BIT INS]
    2687 000000a2 0003FB02          MLA       A1, A3, A4, A1        ; [DPU_V7M3_PIPE] |662|  ; [KEEP 32-BIT INS]
    2688 000000a6 F0F1FBB0          UDIV      A1, A1, A2            ; [DPU_V7M3_PIPE] |662|  ; [KEEP 32-BIT INS]
    2689 000000aa 0084F8A4          STRH      A1, [V1, #132]        ; [DPU_V7M3_PIPE] |662|  ; [KEEP 32-BIT INS]
    2690 000000ae 7869              LDRB      A2, [V2, #1]          ; [DPU_V7M3_PIPE] |662|  ; [ORIG 16-BIT INS]
    2691                    ;* --------------------------------------------------------------------------*
    2692 000000b0           ||$C$L31||:    
    2693                            .dwpsn  file "../Application/sensor.c",line 677,column 9,is_stmt,isa 1
    2694 000000b0 0160F001          AND       A2, A2, #96           ; [DPU_V7M3_PIPE] |677|  ; [KEEP 32-BIT INS]
    2695 000000b4 2920              CMP       A2, #32               ; [DPU_V7M3_PIPE] |677|  ; [ORIG 16-BIT INS]
TI ARM Assembler PC v18.1.4 Wed Dec 12 18:32:41 2018

Tools Copyright (c) 1996-2018 Texas Instruments Incorporated
C:\Users\DAMIAN\AppData\Local\Temp\{7491C7A3-CB92-4437-A790-AF4273D670A8} PAGE   50

    2696 000000b6 D106              BNE       ||$C$L32||            ; [DPU_V7M3_PIPE] |677|  ; [ORIG 16-BIT INS]
    2697                            ; BRANCHCC OCCURS {||$C$L32||}   ; [] |677| 
    2698                    ;* --------------------------------------------------------------------------*
    2699                            .dwpsn  file "../Application/sensor.c",line 680,column 13,is_stmt,isa 1
    2700 000000b8 7828              LDRB      A1, [V2, #0]          ; [DPU_V7M3_PIPE] |680|  ; [ORIG 16-BIT INS]
    2701 000000ba B920              CBNZ      A1, ||$C$L32||        ; []  ; [ORIG 16-BIT INS]
    2702                            ; BRANCHCC OCCURS {||$C$L32||}   ; [] |680| 
    2703                    ;* --------------------------------------------------------------------------*
    2704                            .dwpsn  file "../Application/sensor.c",line 682,column 17,is_stmt,isa 1
    2705 000000bc 0064F8B4          LDRH      A1, [V1, #100]        ; [DPU_V7M3_PIPE] |682|  ; [KEEP 32-BIT INS]
    2706 000000c0 1C40              ADDS      A1, A1, #1            ; [DPU_V7M3_PIPE] |682|  ; [ORIG 16-BIT INS]
    2707 000000c2 0064F8A4          STRH      A1, [V1, #100]        ; [DPU_V7M3_PIPE] |682|  ; [KEEP 32-BIT INS]
    2708                    ;* --------------------------------------------------------------------------*
    2709 000000c6           ||$C$L32||:    
    2710                            .dwpsn  file "../Application/sensor.c",line 685,column 9,is_stmt,isa 1
    2711 000000c6 2960              CMP       A2, #96               ; [DPU_V7M3_PIPE] |685|  ; [ORIG 16-BIT INS]
    2712 000000c8 D106              BNE       ||$C$L33||            ; [DPU_V7M3_PIPE] |685|  ; [ORIG 16-BIT INS]
    2713                            ; BRANCHCC OCCURS {||$C$L33||}   ; [] |685| 
    2714                    ;* --------------------------------------------------------------------------*
    2715                            .dwpsn  file "../Application/sensor.c",line 688,column 13,is_stmt,isa 1
    2716 000000ca 7828              LDRB      A1, [V2, #0]          ; [DPU_V7M3_PIPE] |688|  ; [ORIG 16-BIT INS]
    2717 000000cc B920              CBNZ      A1, ||$C$L33||        ; []  ; [ORIG 16-BIT INS]
    2718                            ; BRANCHCC OCCURS {||$C$L33||}   ; [] |688| 
    2719                    ;* --------------------------------------------------------------------------*
    2720                            .dwpsn  file "../Application/sensor.c",line 690,column 17,is_stmt,isa 1
    2721 000000ce 006AF8B4          LDRH      A1, [V1, #106]        ; [DPU_V7M3_PIPE] |690|  ; [KEEP 32-BIT INS]
    2722 000000d2 1C40              ADDS      A1, A1, #1            ; [DPU_V7M3_PIPE] |690|  ; [ORIG 16-BIT INS]
    2723 000000d4 006AF8A4          STRH      A1, [V1, #106]        ; [DPU_V7M3_PIPE] |690|  ; [KEEP 32-BIT INS]
    2724                    ;* --------------------------------------------------------------------------*
    2725                    ||$C$L33||:    
    2726                    $C$DW$244       .dwtag  DW_TAG_TI_branch
    2727                            .dwattr $C$DW$244, DW_AT_low_pc(0x00)
    2728                            .dwattr $C$DW$244, DW_AT_TI_return
    2729                    
    2730 000000d8 BD70              POP       {V1, V2, V3, PC}      ; [DPU_V7M3_PIPE]  ; [ORIG 16-BIT INS]
    2731                            .dwcfi  cfa_offset, 0
    2732                            .dwcfi  restore_reg, 6
    2733                            .dwcfi  restore_reg, 5
    2734                            .dwcfi  restore_reg, 4
    2735                            ; BRANCH OCCURS                  ; [] 
    2736                            .dwattr $C$DW$235, DW_AT_TI_end_file("../Application/sensor.c")
    2737                            .dwattr $C$DW$235, DW_AT_TI_end_line(0x2b6)
    2738                            .dwattr $C$DW$235, DW_AT_TI_end_column(0x01)
    2739                            .dwendentry
    2740                            .dwendtag $C$DW$235
    2741                    
    2742 00000000                   .sect   ".text:ICall_getTicks"
    2743                            .clink
    2744                            .thumbfunc ICall_getTicks
    2745 00000000                   .thumb
    2746                    
    2747                    $C$DW$245       .dwtag  DW_TAG_subprogram
    2748                            .dwattr $C$DW$245, DW_AT_name("ICall_getTicks")
    2749                            .dwattr $C$DW$245, DW_AT_low_pc(ICall_getTicks)
    2750                            .dwattr $C$DW$245, DW_AT_high_pc(0x00)
TI ARM Assembler PC v18.1.4 Wed Dec 12 18:32:41 2018

Tools Copyright (c) 1996-2018 Texas Instruments Incorporated
C:\Users\DAMIAN\AppData\Local\Temp\{7491C7A3-CB92-4437-A790-AF4273D670A8} PAGE   51

    2751                            .dwattr $C$DW$245, DW_AT_TI_symbol_name("ICall_getTicks")
    2752                            .dwattr $C$DW$245, DW_AT_type(*$C$DW$T$469)
    2753                            .dwattr $C$DW$245, DW_AT_TI_begin_file("C:/ti/simplelink_cc13x0_sdk_2_30_00_20/source/ti/ti154
    2754                            .dwattr $C$DW$245, DW_AT_TI_begin_line(0x8ac)
    2755                            .dwattr $C$DW$245, DW_AT_TI_begin_column(0x01)
    2756                            .dwattr $C$DW$245, DW_AT_decl_file("C:/ti/simplelink_cc13x0_sdk_2_30_00_20/source/ti/ti154stac
    2757                            .dwattr $C$DW$245, DW_AT_decl_line(0x8ac)
    2758                            .dwattr $C$DW$245, DW_AT_decl_column(0x01)
    2759                            .dwattr $C$DW$245, DW_AT_TI_max_frame_size(0x10)
    2760                            .dwpsn  file "C:/ti/simplelink_cc13x0_sdk_2_30_00_20/source/ti/ti154stack/icall/src/inc/icall.
    2761                    
    2762                            .dwfde $C$DW$CIE, ICall_getTicks
    2763                    
    2764                    ;*****************************************************************************
    2765                    ;* FUNCTION NAME: ICall_getTicks                                             *
    2766                    ;*                                                                           *
    2767                    ;*   Regs Modified     : A1,A2,A3,A4,V9,SP,LR,SR                             *
    2768                    ;*   Regs Used         : A1,A2,A3,A4,V9,SP,LR,SR                             *
    2769                    ;*   Local Frame Size  : 0 Args + 8 Auto + 4 Save = 12 byte                  *
    2770                    ;*****************************************************************************
    2771                    ICall_getTicks:
    2772                    ;* --------------------------------------------------------------------------*
    2773                    $C$DW$246       .dwtag  DW_TAG_variable
    2774                            .dwattr $C$DW$246, DW_AT_name("args")
    2775                            .dwattr $C$DW$246, DW_AT_TI_symbol_name("args")
    2776                            .dwattr $C$DW$246, DW_AT_type(*$C$DW$T$928)
    2777                            .dwattr $C$DW$246, DW_AT_location[DW_OP_breg13 0]
    2778                    
    2779                            .dwcfi  cfa_offset, 0
    2780 00000000 B50E              PUSH      {A2, A3, A4, LR}      ; [DPU_V7M3_PIPE]  ; [ORIG 16-BIT INS]
    2781                            .dwcfi  cfa_offset, 16
    2782                            .dwcfi  save_reg_to_mem, 14, -4
    2783                            .dwcfi  save_reg_to_mem, 3, -8
    2784                            .dwcfi  save_reg_to_mem, 2, -12
    2785                            .dwcfi  save_reg_to_mem, 1, -16
    2786                            .dwpsn  file "C:/ti/simplelink_cc13x0_sdk_2_30_00_20/source/ti/ti154stack/icall/src/inc/icall.
    2787 00000002 2008              MOVS      A1, #8                ; [DPU_V7M3_PIPE] |2223|  ; [ORIG 16-BIT INS]
    2788 00000004 0000F8AD          STRH      A1, [SP, #0]          ; [DPU_V7M3_PIPE] |2223|  ; [KEEP 32-BIT INS]
    2789                            .dwpsn  file "C:/ti/simplelink_cc13x0_sdk_2_30_00_20/source/ti/ti154stack/icall/src/inc/icall.
    2790 00000008 2012              MOVS      A1, #18               ; [DPU_V7M3_PIPE] |2224|  ; [ORIG 16-BIT INS]
    2791 0000000a 0002F8AD          STRH      A1, [SP, #2]          ; [DPU_V7M3_PIPE] |2224|  ; [KEEP 32-BIT INS]
    2792                            .dwpsn  file "C:/ti/simplelink_cc13x0_sdk_2_30_00_20/source/ti/ti154stack/icall/src/inc/icall.
    2793 0000000e 4803              LDR       A1, $C$CON11          ; [DPU_V7M3_PIPE] |2225|  ; [ORIG 16-BIT INS]
    2794 00000010 6801              LDR       A2, [A1, #0]          ; [DPU_V7M3_PIPE] |2225|  ; [ORIG 16-BIT INS]
    2795 00000012 4668              MOV       A1, SP                ; [DPU_V7M3_PIPE] |2225|  ; [ORIG 16-BIT INS]
    2796                    $C$DW$247       .dwtag  DW_TAG_TI_branch
    2797                            .dwattr $C$DW$247, DW_AT_low_pc(0x00)
    2798                            .dwattr $C$DW$247, DW_AT_TI_call
    2799                            .dwattr $C$DW$247, DW_AT_TI_indirect
    2800                    
    2801 00000014 4788              BLX       A2                    ; [DPU_V7M3_PIPE] |2225|  ; [ORIG 16-BIT INS]
    2802                            ; CALL OCCURS {}                 ; [] |2225| 
    2803                            .dwpsn  file "C:/ti/simplelink_cc13x0_sdk_2_30_00_20/source/ti/ti154stack/icall/src/inc/icall.
    2804 00000016 9801              LDR       A1, [SP, #4]          ; [DPU_V7M3_PIPE] |2226|  ; [ORIG 16-BIT INS]
    2805                    $C$DW$248       .dwtag  DW_TAG_TI_branch
TI ARM Assembler PC v18.1.4 Wed Dec 12 18:32:41 2018

Tools Copyright (c) 1996-2018 Texas Instruments Incorporated
C:\Users\DAMIAN\AppData\Local\Temp\{7491C7A3-CB92-4437-A790-AF4273D670A8} PAGE   52

    2806                            .dwattr $C$DW$248, DW_AT_low_pc(0x00)
    2807                            .dwattr $C$DW$248, DW_AT_TI_return
    2808                    
    2809 00000018 BD0E              POP       {A2, A3, A4, PC}      ; [DPU_V7M3_PIPE]  ; [ORIG 16-BIT INS]
    2810                            .dwcfi  cfa_offset, 0
    2811                            .dwcfi  restore_reg, 3
    2812                            .dwcfi  restore_reg, 2
    2813                            .dwcfi  restore_reg, 1
    2814                            ; BRANCH OCCURS                  ; [] 
    2815                            .dwattr $C$DW$245, DW_AT_TI_end_file("C:/ti/simplelink_cc13x0_sdk_2_30_00_20/source/ti/ti154st
    2816                            .dwattr $C$DW$245, DW_AT_TI_end_line(0x8b3)
    2817                            .dwattr $C$DW$245, DW_AT_TI_end_column(0x01)
    2818                            .dwendentry
    2819                            .dwendtag $C$DW$245
    2820                    
    2821 00000000                   .sect   ".text:jdllcJoinedCb"
    2822                            .clink
    2823                            .thumbfunc jdllcJoinedCb
    2824 00000000                   .thumb
    2825                    
    2826                    $C$DW$249       .dwtag  DW_TAG_subprogram
    2827                            .dwattr $C$DW$249, DW_AT_name("jdllcJoinedCb")
    2828                            .dwattr $C$DW$249, DW_AT_low_pc(jdllcJoinedCb)
    2829                            .dwattr $C$DW$249, DW_AT_high_pc(0x00)
    2830                            .dwattr $C$DW$249, DW_AT_TI_symbol_name("jdllcJoinedCb")
    2831                            .dwattr $C$DW$249, DW_AT_TI_begin_file("../Application/sensor.c")
    2832                            .dwattr $C$DW$249, DW_AT_TI_begin_line(0x521)
    2833                            .dwattr $C$DW$249, DW_AT_TI_begin_column(0x0d)
    2834                            .dwattr $C$DW$249, DW_AT_decl_file("../Application/sensor.c")
    2835                            .dwattr $C$DW$249, DW_AT_decl_line(0x521)
    2836                            .dwattr $C$DW$249, DW_AT_decl_column(0x0d)
    2837                            .dwattr $C$DW$249, DW_AT_TI_max_frame_size(0x18)
    2838                            .dwpsn  file "../Application/sensor.c",line 1315,column 1,is_stmt,address jdllcJoinedCb,isa 1
    2839                    
    2840                            .dwfde $C$DW$CIE, jdllcJoinedCb
    2841                    $C$DW$250       .dwtag  DW_TAG_formal_parameter
    2842                            .dwattr $C$DW$250, DW_AT_name("pDevInfo")
    2843                            .dwattr $C$DW$250, DW_AT_TI_symbol_name("pDevInfo")
    2844                            .dwattr $C$DW$250, DW_AT_type(*$C$DW$T$214)
    2845                            .dwattr $C$DW$250, DW_AT_location[DW_OP_reg0]
    2846                    
    2847                    $C$DW$251       .dwtag  DW_TAG_formal_parameter
    2848                            .dwattr $C$DW$251, DW_AT_name("pParentInfo")
    2849                            .dwattr $C$DW$251, DW_AT_TI_symbol_name("pParentInfo")
    2850                            .dwattr $C$DW$251, DW_AT_type(*$C$DW$T$216)
    2851                            .dwattr $C$DW$251, DW_AT_location[DW_OP_reg1]
    2852                    
    2853                    
    2854                    ;*****************************************************************************
    2855                    ;* FUNCTION NAME: jdllcJoinedCb                                              *
    2856                    ;*                                                                           *
    2857                    ;*   Regs Modified     : A1,A2,A3,A4,V1,V2,V3,V4,V9,SP,LR,SR                 *
    2858                    ;*   Regs Used         : A1,A2,A3,A4,V1,V2,V3,V4,V9,SP,LR,SR                 *
    2859                    ;*   Local Frame Size  : 0 Args + 0 Auto + 20 Save = 20 byte                 *
    2860                    ;*****************************************************************************
TI ARM Assembler PC v18.1.4 Wed Dec 12 18:32:41 2018

Tools Copyright (c) 1996-2018 Texas Instruments Incorporated
C:\Users\DAMIAN\AppData\Local\Temp\{7491C7A3-CB92-4437-A790-AF4273D670A8} PAGE   53

    2861                    jdllcJoinedCb:
    2862                    ;* --------------------------------------------------------------------------*
    2863                    ;* V1    assigned to $O$C1
    2864                    ;* V1    assigned to $O$K4
    2865                    ;* V2    assigned to $O$v1
    2866                    ;* V3    assigned to pDevInfo
    2867                    $C$DW$252       .dwtag  DW_TAG_variable
    2868                            .dwattr $C$DW$252, DW_AT_name("pDevInfo")
    2869                            .dwattr $C$DW$252, DW_AT_TI_symbol_name("pDevInfo")
    2870                            .dwattr $C$DW$252, DW_AT_type(*$C$DW$T$885)
    2871                            .dwattr $C$DW$252, DW_AT_location[DW_OP_reg6]
    2872                    
    2873                    ;* V2    assigned to pParentInfo
    2874                    $C$DW$253       .dwtag  DW_TAG_variable
    2875                            .dwattr $C$DW$253, DW_AT_name("pParentInfo")
    2876                            .dwattr $C$DW$253, DW_AT_TI_symbol_name("pParentInfo")
    2877                            .dwattr $C$DW$253, DW_AT_type(*$C$DW$T$593)
    2878                            .dwattr $C$DW$253, DW_AT_location[DW_OP_reg5]
    2879                    
    2880                    ;* A1    assigned to randomNum
    2881                    $C$DW$254       .dwtag  DW_TAG_variable
    2882                            .dwattr $C$DW$254, DW_AT_name("randomNum")
    2883                            .dwattr $C$DW$254, DW_AT_TI_symbol_name("randomNum")
    2884                            .dwattr $C$DW$254, DW_AT_type(*$C$DW$T$36)
    2885                            .dwattr $C$DW$254, DW_AT_location[DW_OP_reg0]
    2886                    
    2887                    ;* A2    assigned to stat
    2888                    $C$DW$255       .dwtag  DW_TAG_variable
    2889                            .dwattr $C$DW$255, DW_AT_name("stat")
    2890                            .dwattr $C$DW$255, DW_AT_TI_symbol_name("stat")
    2891                            .dwattr $C$DW$255, DW_AT_type(*$C$DW$T$10)
    2892                            .dwattr $C$DW$255, DW_AT_location[DW_OP_reg1]
    2893                    
    2894                            .dwcfi  cfa_offset, 0
    2895 00000000 B5F8              PUSH      {A4, V1, V2, V3, V4, LR} ; [DPU_V7M3_PIPE]  ; [ORIG 16-BIT INS]
    2896                            .dwcfi  cfa_offset, 24
    2897                            .dwcfi  save_reg_to_mem, 14, -4
    2898                            .dwcfi  save_reg_to_mem, 7, -8
    2899                            .dwcfi  save_reg_to_mem, 6, -12
    2900                            .dwcfi  save_reg_to_mem, 5, -16
    2901                            .dwcfi  save_reg_to_mem, 4, -20
    2902                            .dwcfi  save_reg_to_mem, 3, -24
    2903                            .dwpsn  file "../Application/sensor.c",line 1319,column 5,is_stmt,isa 1
    2904 00000002 4C28              LDR       V1, $C$CON14          ; [DPU_V7M3_PIPE] |1319|  ; [ORIG 16-BIT INS]
    2905                            .dwpsn  file "../Application/sensor.c",line 1315,column 1,is_stmt,isa 1
    2906 00000004 4606              MOV       V3, A1                ; [DPU_V7M3_PIPE] |1315|  ; [ORIG 16-BIT INS]
    2907                            .dwpsn  file "../Application/sensor.c",line 1319,column 5,is_stmt,isa 1
    2908 00000006 220E              MOVS      A3, #14               ; [DPU_V7M3_PIPE] |1319|  ; [ORIG 16-BIT INS]
    2909                            .dwpsn  file "../Application/sensor.c",line 1315,column 1,is_stmt,isa 1
    2910 00000008 460D              MOV       V2, A2                ; [DPU_V7M3_PIPE] |1315|  ; [ORIG 16-BIT INS]
    2911 0000000a 0038F104          ADD       A1, V1, #56           ; [DPU_V7M3_PIPE]  ; [KEEP 32-BIT INS]
    2912                            .dwpsn  file "../Application/sensor.c",line 1319,column 5,is_stmt,isa 1
    2913                    $C$DW$256       .dwtag  DW_TAG_TI_branch
    2914                            .dwattr $C$DW$256, DW_AT_low_pc(0x00)
    2915                            .dwattr $C$DW$256, DW_AT_name("memcpy")
TI ARM Assembler PC v18.1.4 Wed Dec 12 18:32:41 2018

Tools Copyright (c) 1996-2018 Texas Instruments Incorporated
C:\Users\DAMIAN\AppData\Local\Temp\{7491C7A3-CB92-4437-A790-AF4273D670A8} PAGE   54

    2916                            .dwattr $C$DW$256, DW_AT_TI_call
    2917                    
    2918 0000000e FFFEF7FF!         BL        memcpy                ; [DPU_V7M3_PIPE] |1319|  ; [KEEP 32-BIT INS]
    2919                            ; CALL OCCURS {memcpy }          ; [] |1319| 
    2920                            .dwpsn  file "../Application/sensor.c",line 1330,column 9,is_stmt,isa 1
    2921 00000012 2002              MOVS      A1, #2                ; [DPU_V7M3_PIPE] |1330|  ; [ORIG 16-BIT INS]
    2922 00000014 0028F884          STRB      A1, [V1, #40]         ; [DPU_V7M3_PIPE] |1330|  ; [KEEP 32-BIT INS]
    2923                            .dwpsn  file "../Application/sensor.c",line 1331,column 9,is_stmt,isa 1
    2924 00000018 8868              LDRH      A1, [V2, #2]          ; [DPU_V7M3_PIPE] |1331|  ; [ORIG 16-BIT INS]
    2925 0000001a 8420              STRH      A1, [V1, #32]         ; [DPU_V7M3_PIPE] |1331|  ; [ORIG 16-BIT INS]
    2926                            .dwpsn  file "../Application/sensor.c",line 1346,column 8,is_stmt,isa 1
    2927                    $C$DW$257       .dwtag  DW_TAG_TI_branch
    2928                            .dwattr $C$DW$257, DW_AT_low_pc(0x00)
    2929                            .dwattr $C$DW$257, DW_AT_name("ApiMac_randomByte")
    2930                            .dwattr $C$DW$257, DW_AT_TI_call
    2931                    
    2932 0000001c FFFEF7FF!         BL        ApiMac_randomByte     ; [DPU_V7M3_PIPE] |1346|  ; [KEEP 32-BIT INS]
    2933                            ; CALL OCCURS {ApiMac_randomByte }  ; [] |1346| 
    2934 00000020 4607              MOV       V4, A1                ; [DPU_V7M3_PIPE] |1346|  ; [ORIG 16-BIT INS]
    2935                    $C$DW$258       .dwtag  DW_TAG_TI_branch
    2936                            .dwattr $C$DW$258, DW_AT_low_pc(0x00)
    2937                            .dwattr $C$DW$258, DW_AT_name("ApiMac_randomByte")
    2938                            .dwattr $C$DW$258, DW_AT_TI_call
    2939                    
    2940 00000022 FFFEF7FF!         BL        ApiMac_randomByte     ; [DPU_V7M3_PIPE] |1346|  ; [KEEP 32-BIT INS]
    2941                            ; CALL OCCURS {ApiMac_randomByte }  ; [] |1346| 
    2942 00000026 2707EB00          ADD       V4, A1, V4, LSL #8    ; [DPU_V7M3_PIPE] |1346|  ; [KEEP 32-BIT INS]
    2943                    $C$DW$259       .dwtag  DW_TAG_TI_branch
    2944                            .dwattr $C$DW$259, DW_AT_low_pc(0x00)
    2945                            .dwattr $C$DW$259, DW_AT_name("ApiMac_randomByte")
    2946                            .dwattr $C$DW$259, DW_AT_TI_call
    2947                    
    2948 0000002a FFFEF7FF!         BL        ApiMac_randomByte     ; [DPU_V7M3_PIPE] |1346|  ; [KEEP 32-BIT INS]
    2949                            ; CALL OCCURS {ApiMac_randomByte }  ; [] |1346| 
    2950                            .dwpsn  file "../Application/sensor.c",line 1348,column 8,is_stmt,isa 1
    2951 0000002e 6B22              LDR       A3, [V1, #48]         ; [DPU_V7M3_PIPE] |1348|  ; [ORIG 16-BIT INS]
    2952                            .dwpsn  file "../Application/sensor.c",line 1346,column 8,is_stmt,isa 1
    2953 00000030 2007EB00          ADD       A1, A1, V4, LSL #8    ; [DPU_V7M3_PIPE] |1346|  ; [KEEP 32-BIT INS]
    2954                            .dwpsn  file "../Application/sensor.c",line 1348,column 8,is_stmt,isa 1
    2955 00000034 F1F2FBB0          UDIV      A2, A1, A3            ; [DPU_V7M3_PIPE] |1348|  ; [KEEP 32-BIT INS]
    2956 00000038 4351              MULS      A2, A2, A3            ; [DPU_V7M3_PIPE] |1348|  ; [ORIG 16-BIT INS]
    2957 0000003a 1A40              SUBS      A1, A1, A2            ; [DPU_V7M3_PIPE] |1348|  ; [ORIG 16-BIT INS]
    2958 0000003c 300A              ADDS      A1, A1, #10           ; [DPU_V7M3_PIPE] |1348|  ; [ORIG 16-BIT INS]
    2959                            .dwpsn  file "../Application/sensor.c",line 1350,column 8,is_stmt,isa 1
    2960                    $C$DW$260       .dwtag  DW_TAG_TI_branch
    2961                            .dwattr $C$DW$260, DW_AT_low_pc(0x00)
    2962                            .dwattr $C$DW$260, DW_AT_name("Ssf_setReadingClock")
    2963                            .dwattr $C$DW$260, DW_AT_TI_call
    2964                    
    2965 0000003e FFFEF7FF!         BL        Ssf_setReadingClock   ; [DPU_V7M3_PIPE] |1350|  ; [KEEP 32-BIT INS]
    2966                            ; CALL OCCURS {Ssf_setReadingClock }  ; [] |1350| 
    2967                            .dwpsn  file "../Application/sensor.c",line 1354,column 5,is_stmt,isa 1
    2968 00000042 7820              LDRB      A1, [V1, #0]          ; [DPU_V7M3_PIPE] |1354|  ; [ORIG 16-BIT INS]
    2969 00000044 4631              MOV       A2, V3                ; [DPU_V7M3_PIPE] |1354|  ; [ORIG 16-BIT INS]
    2970 00000046 462A              MOV       A3, V2                ; [DPU_V7M3_PIPE] |1354|  ; [ORIG 16-BIT INS]
TI ARM Assembler PC v18.1.4 Wed Dec 12 18:32:41 2018

Tools Copyright (c) 1996-2018 Texas Instruments Incorporated
C:\Users\DAMIAN\AppData\Local\Temp\{7491C7A3-CB92-4437-A790-AF4273D670A8} PAGE   55

    2971                    $C$DW$261       .dwtag  DW_TAG_TI_branch
    2972                            .dwattr $C$DW$261, DW_AT_low_pc(0x00)
    2973                            .dwattr $C$DW$261, DW_AT_name("Ssf_networkUpdate")
    2974                            .dwattr $C$DW$261, DW_AT_TI_call
    2975                    
    2976 00000048 FFFEF7FF!         BL        Ssf_networkUpdate     ; [DPU_V7M3_PIPE] |1354|  ; [KEEP 32-BIT INS]
    2977                            ; CALL OCCURS {Ssf_networkUpdate }  ; [] |1354| 
    2978                            .dwpsn  file "../Application/sensor.c",line 1356,column 5,is_stmt,isa 1
    2979 0000004c 7820              LDRB      A1, [V1, #0]          ; [DPU_V7M3_PIPE] |1356|  ; [ORIG 16-BIT INS]
    2980 0000004e 2801              CMP       A1, #1                ; [DPU_V7M3_PIPE] |1356|  ; [ORIG 16-BIT INS]
    2981 00000050 D00C              BEQ       ||$C$L34||            ; [DPU_V7M3_PIPE] |1356|  ; [ORIG 16-BIT INS]
    2982                            ; BRANCHCC OCCURS {||$C$L34||}   ; [] |1356| 
